# file opened: main.asm
  1   0000                  DEVICE ZXSPECTRUM48
  2   0000                  OPT --syntax=F
  3   0000
  4   0000              ; Startup handler
  5   0000                  ORG #0000
  6   0000 EB               ex de, hl ; EB opcode used by CPLD to determine magic ROM presence
  7   0001 EB               ex de, hl ; ...
  8   0002 C3 70 05         jp startup_handler
  9   0005 00 53 69 7A      DB 0,"Sizif Magic ROM",0
  9   0009 69 66 20 4D
  9   000D 61 67 69 63
  9   0011 20 52 4F 4D
  9   0015 00
 10   0016
 11   0016              ; NMI handler
 12   0016                  ORG #0066
 13   0066 EB               ex de, hl ; EB opcode used by CPLD to determine magic ROM presence
 14   0067 EB               ex de, hl ; ...
 15   0068 C3 BF 05         jp nmi_handler
 16   006B
 17   006B              ; INT IM1 handler
 18   006B                  ORG #0038
 19   0038 C5               push bc
 20   0039 01 38 00         ld bc, #0038
 21   003C ED 43 23 C0      ld (var_int_vector), bc
 22   0040 C1               pop bc
 23   0041 C9               ret
 24   0042
 25   0042              ; INT IM2 handler
 26   0042                  ORG #0101
 27   0101 C9               ret
 28   0102
 29   0102              ; INT IM2 vector table
 30   0102                  ORG #0200
 31   0200 01          > db #01 ; by Z80 user manual int vector is I * 256 + (D & 0xFE)
 31   0201 01          > db #01
 31   0202 01          > db #01
 31   0203 01          > db #01
 31   0204 01          > db #01
 31   0205 01          > db #01
 31   0206 01          > db #01
 31   0207 01          > db #01
 31   0208 01          > db #01
 31   0209 01          > db #01
 31   020A 01          > db #01
 31   020B 01          > db #01
 31   020C 01          > db #01
 31   020D 01          > db #01
 31   020E 01          > db #01
 31   020F 01          > db #01
 31   0210 01          > db #01
 31   0211 01          > db #01
 31   0212 01          > db #01
 31   0213 01          > db #01
 31   0214 01          > db #01
 31   0215 01          > db #01
 31   0216 01          > db #01
 31   0217 01          > db #01
 31   0218 01          > db #01
 31   0219 01          > db #01
 31   021A 01          > db #01
 31   021B 01          > db #01
 31   021C 01          > db #01
 31   021D 01          > db #01
 31   021E 01          > db #01
 31   021F 01          > db #01
 31   0220 01          > db #01
 31   0221 01          > db #01
 31   0222 01          > db #01
 31   0223 01          > db #01
 31   0224 01          > db #01
 31   0225 01          > db #01
 31   0226 01          > db #01
 31   0227 01          > db #01
 31   0228 01          > db #01
 31   0229 01          > db #01
 31   022A 01          > db #01
 31   022B 01          > db #01
 31   022C 01          > db #01
 31   022D 01          > db #01
 31   022E 01          > db #01
 31   022F 01          > db #01
 31   0230 01          > db #01
 31   0231 01          > db #01
 31   0232 01          > db #01
 31   0233 01          > db #01
 31   0234 01          > db #01
 31   0235 01          > db #01
 31   0236 01          > db #01
 31   0237 01          > db #01
 31   0238 01          > db #01
 31   0239 01          > db #01
 31   023A 01          > db #01
 31   023B 01          > db #01
 31   023C 01          > db #01
 31   023D 01          > db #01
 31   023E 01          > db #01
 31   023F 01          > db #01
 31   0240 01          > db #01
 31   0241 01          > db #01
 31   0242 01          > db #01
 31   0243 01          > db #01
 31   0244 01          > db #01
 31   0245 01          > db #01
 31   0246 01          > db #01
 31   0247 01          > db #01
 31   0248 01          > db #01
 31   0249 01          > db #01
 31   024A 01          > db #01
 31   024B 01          > db #01
 31   024C 01          > db #01
 31   024D 01          > db #01
 31   024E 01          > db #01
 31   024F 01          > db #01
 31   0250 01          > db #01
 31   0251 01          > db #01
 31   0252 01          > db #01
 31   0253 01          > db #01
 31   0254 01          > db #01
 31   0255 01          > db #01
 31   0256 01          > db #01
 31   0257 01          > db #01
 31   0258 01          > db #01
 31   0259 01          > db #01
 31   025A 01          > db #01
 31   025B 01          > db #01
 31   025C 01          > db #01
 31   025D 01          > db #01
 31   025E 01          > db #01
 31   025F 01          > db #01
 31   0260 01          > db #01
 31   0261 01          > db #01
 31   0262 01          > db #01
 31   0263 01          > db #01
 31   0264 01          > db #01
 31   0265 01          > db #01
 31   0266 01          > db #01
 31   0267 01          > db #01
 31   0268 01          > db #01
 31   0269 01          > db #01
 31   026A 01          > db #01
 31   026B 01          > db #01
 31   026C 01          > db #01
 31   026D 01          > db #01
 31   026E 01          > db #01
 31   026F 01          > db #01
 31   0270 01          > db #01
 31   0271 01          > db #01
 31   0272 01          > db #01
 31   0273 01          > db #01
 31   0274 01          > db #01
 31   0275 01          > db #01
 31   0276 01          > db #01
 31   0277 01          > db #01
 31   0278 01          > db #01
 31   0279 01          > db #01
 31   027A 01          > db #01
 31   027B 01          > db #01
 31   027C 01          > db #01
 31   027D 01          > db #01
 31   027E 01          > db #01
 31   027F 01          > db #01
 31   0280 01          > db #01
 31   0281 01          > db #01
 31   0282 01          > db #01
 31   0283 01          > db #01
 31   0284 01          > db #01
 31   0285 01          > db #01
 31   0286 01          > db #01
 31   0287 01          > db #01
 31   0288 01          > db #01
 31   0289 01          > db #01
 31   028A 01          > db #01
 31   028B 01          > db #01
 31   028C 01          > db #01
 31   028D 01          > db #01
 31   028E 01          > db #01
 31   028F 01          > db #01
 31   0290 01          > db #01
 31   0291 01          > db #01
 31   0292 01          > db #01
 31   0293 01          > db #01
 31   0294 01          > db #01
 31   0295 01          > db #01
 31   0296 01          > db #01
 31   0297 01          > db #01
 31   0298 01          > db #01
 31   0299 01          > db #01
 31   029A 01          > db #01
 31   029B 01          > db #01
 31   029C 01          > db #01
 31   029D 01          > db #01
 31   029E 01          > db #01
 31   029F 01          > db #01
 31   02A0 01          > db #01
 31   02A1 01          > db #01
 31   02A2 01          > db #01
 31   02A3 01          > db #01
 31   02A4 01          > db #01
 31   02A5 01          > db #01
 31   02A6 01          > db #01
 31   02A7 01          > db #01
 31   02A8 01          > db #01
 31   02A9 01          > db #01
 31   02AA 01          > db #01
 31   02AB 01          > db #01
 31   02AC 01          > db #01
 31   02AD 01          > db #01
 31   02AE 01          > db #01
 31   02AF 01          > db #01
 31   02B0 01          > db #01
 31   02B1 01          > db #01
 31   02B2 01          > db #01
 31   02B3 01          > db #01
 31   02B4 01          > db #01
 31   02B5 01          > db #01
 31   02B6 01          > db #01
 31   02B7 01          > db #01
 31   02B8 01          > db #01
 31   02B9 01          > db #01
 31   02BA 01          > db #01
 31   02BB 01          > db #01
 31   02BC 01          > db #01
 31   02BD 01          > db #01
 31   02BE 01          > db #01
 31   02BF 01          > db #01
 31   02C0 01          > db #01
 31   02C1 01          > db #01
 31   02C2 01          > db #01
 31   02C3 01          > db #01
 31   02C4 01          > db #01
 31   02C5 01          > db #01
 31   02C6 01          > db #01
 31   02C7 01          > db #01
 31   02C8 01          > db #01
 31   02C9 01          > db #01
 31   02CA 01          > db #01
 31   02CB 01          > db #01
 31   02CC 01          > db #01
 31   02CD 01          > db #01
 31   02CE 01          > db #01
 31   02CF 01          > db #01
 31   02D0 01          > db #01
 31   02D1 01          > db #01
 31   02D2 01          > db #01
 31   02D3 01          > db #01
 31   02D4 01          > db #01
 31   02D5 01          > db #01
 31   02D6 01          > db #01
 31   02D7 01          > db #01
 31   02D8 01          > db #01
 31   02D9 01          > db #01
 31   02DA 01          > db #01
 31   02DB 01          > db #01
 31   02DC 01          > db #01
 31   02DD 01          > db #01
 31   02DE 01          > db #01
 31   02DF 01          > db #01
 31   02E0 01          > db #01
 31   02E1 01          > db #01
 31   02E2 01          > db #01
 31   02E3 01          > db #01
 31   02E4 01          > db #01
 31   02E5 01          > db #01
 31   02E6 01          > db #01
 31   02E7 01          > db #01
 31   02E8 01          > db #01
 31   02E9 01          > db #01
 31   02EA 01          > db #01
 31   02EB 01          > db #01
 31   02EC 01          > db #01
 31   02ED 01          > db #01
 31   02EE 01          > db #01
 31   02EF 01          > db #01
 31   02F0 01          > db #01
 31   02F1 01          > db #01
 31   02F2 01          > db #01
 31   02F3 01          > db #01
 31   02F4 01          > db #01
 31   02F5 01          > db #01
 31   02F6 01          > db #01
 31   02F7 01          > db #01
 31   02F8 01          > db #01
 31   02F9 01          > db #01
 31   02FA 01          > db #01
 31   02FB 01          > db #01
 31   02FC 01          > db #01
 31   02FD 01          > db #01
 31   02FE 01          > db #01
 31   02FF 01          > db #01
 31   0300 01          > db #01
 32   0301                              ; but by other references and by T80/A-Z80 implementation int vector is I * 256 + D
 33   0301                              ; so we just play safe and use symmetric int handler address and vector table with one extra byte
 34   0301
 35   0301
 36   0301                  ORG #0570   ; this address chosen to do not overlap with divmmc entrypoints
 37   0570              startup_handler:
 38   0570 31 BE FF         ld sp, Stack_top
 39   0573 DD 21 00 58      ld ix, #5800    ; draw 4 rygb boxes on left top corner to indicate boot
 40   0577 DD 36 00 D2      ld (ix+0), #D2  ; r
 41   057B DD 36 01 F6      ld (ix+1), #F6  ; y
 42   057F CD 87 06         call check_initialized
 43   0582 28 1D            jr z, .warm_boot
 44   0584 ED 56            im 1            ; wait for ps/2 keyboard ready
 45   0586 06 28            ld b, POWERON_DELAY ; ...
 46   0588              .loop               ; ...
 47   0588 FB               ei              ; ...
 48   0589 76               halt            ; ...
 49   058A 10 FC            djnz .loop      ; ...
 50   058C CD AB 06         call init_default_config
 51   058F CD CE 06         call load_user_config
 52   0592 CD 67 07         call detect_sd_card
 53   0595 CD 78 07         call detect_ext_board
 54   0598 CD AB 07         call detect_external_ay
 55   059B CD CF 07         call detect_external_bdi
 56   059E CD F5 07         call check_custom_rom
 57   05A1              .warm_boot:
 58   05A1 CD B6 06         call load_config
 59   05A4 CD 1E 07         call init_cpld
 60   05A7 CD 9E 06         call save_initialized
 61   05AA CD D6 08         call mute_saa1099  ; saa1099 does not have reset pin
 62   05AD DD 21 00 58      ld ix, #5800    ; draw 4 rygb boxes on left top corner to indicate boot
 63   05B1 DD 36 02 E4      ld (ix+2), #E4  ; g
 64   05B5 DD 36 03 C9      ld (ix+3), #C9  ; b
 65   05B9 21 00 00         ld hl, 0
 66   05BC C3 65 06         jp exit_with_jp
 67   05BF
 68   05BF
 69   05BF              nmi_handler:
 70   05BF ED 73 21 C0      ld (var_sp_reg), sp
 71   05C3 31 BE FF         ld sp, Stack_top
 72   05C6 F5               push af
 73   05C7 E5               push hl
 74   05C8 C5               push bc
 75   05C9 3E 01            ld a, 1                   ; show magic border
 76   05CB 01 FF 01         ld bc, #01ff              ; ...
 77   05CE ED 79            out (c), a                ; ...
 78   05D0 AF               xor a
 79   05D1 32 25 C0         ld (var_magic_enter_cnt), a
 80   05D4 32 26 C0         ld (var_magic_leave_cnt), a
 81   05D7              .key_wait_loop:
 82   05D7 CD 1B 08         call check_entering_pause ; A[1] == 1 if pause button is pressed
 83   05DA CB 4F            bit 1, a                  ; ...
 84   05DC C2 02 06         jp nz, .enter_pause       ; ...
 85   05DF CD 44 08         call delay_10ms           ;
 86   05E2 CD 1F 08         call check_entering_menu  ; A == 1 if we are entering menu, A == 2 if we are leaving to...
 87   05E5 CB 47            bit 0, a                  ; ...default nmi handler, A == 0 otherwise
 88   05E7 C2 0A 06         jp nz, .enter_menu        ; ...
 89   05EA CB 4F            bit 1, a                  ; ...
 90   05EC 28 E9            jr z, .key_wait_loop      ; ...
 91   05EE              .leave_no_key:
 92   05EE AF               xor a                     ; disable border
 93   05EF 01 FF 01         ld bc, #01ff              ; ...
 94   05F2 ED 79            out (c), a                ; ...
 95   05F4 01 FF 00         ld bc, #00ff              ; ...
 96   05F7 ED 78            in a, (c)                 ; if divmmc paged - just do retn
 97   05F9 CB 5F            bit 3, a                  ; ...
 98   05FB 20 7A            jr nz, exit_with_ret      ; ...
 99   05FD 21 66 00         ld hl, #0066              ; otherwise jump to default nmi handler
100   0600 18 63            jr exit_with_jp           ; ...
101   0602
102   0602              .enter_pause:
103   0602 21 49 09         ld hl, nmi_pause
104   0605 22 2D C0         ld (var_main_fun), hl
105   0608 18 06            jr .enter
106   060A              .enter_menu:
107   060A 21 5C 09         ld hl, nmi_menu
108   060D 22 2D C0         ld (var_main_fun), hl
109   0610                  ;jr .enter
110   0610              .enter:
111   0610 D5               push de
112   0611 DD E5            push ix
113   0613 FD E5            push iy
114   0615 ED 57            ld a, i                   ; save I reg and IFF2
115   0617 F5               push af                   ; ...
116   0618 3E 02            ld a, #02                 ; set our IM2 interrupt table address (#02xx)
117   061A ED 47            ld i, a                   ; ...
118   061C AF               xor a
119   061D 32 27 C0         ld (var_exit_flag), a
120   0620 32 28 C0         ld (var_exit_reboot), a
121   0623 CD CC 0D         call input_init
122   0626 CD 7A 08         call save
123   0629              .run_fun:
124   0629 21 31 06         ld hl, .leave             ; place ret address to stack
125   062C E5               push hl                   ; ...
126   062D 2A 2D C0         ld hl, (var_main_fun)     ; jump to our loop function
127   0630 E9               jp (hl)                   ; ...
128   0631              .leave:
129   0631 CD C2 06         call save_config
130   0634 CD E3 08         call restore
131   0637 3A 28 C0         ld a, (var_exit_reboot)   ; should we reboot?
132   063A B7               or a                      ; ...
133   063B 28 07            jr z, .leave_without_reboot ; ...
134   063D 3E 02            ld a, 2                   ; reboot
135   063F 01 FF 01         ld bc, #01ff              ; ...
136   0642 ED 79            out (c), a                ; ...
137   0644              .leave_without_reboot:
138   0644 F1               pop af                    ; A = I
139   0645 F5               push af                   ;
140   0646 CD 66 08         call get_im2_handler      ; HL = default im2 handler address
141   0649 22 23 C0         ld (var_int_vector), hl
142   064C AF               xor a                     ; disable border
143   064D 01 FF 01         ld bc, #01ff              ; ...
144   0650 ED 79            out (c), a                ; ...
145   0652 F1               pop af
146   0653 FD E1            pop iy
147   0655 DD E1            pop ix
148   0657 D1               pop de
149   0658 FB               ei                        ; wait for int just for safety
150   0659 76               halt                      ; ...
151   065A ED 47            ld i, a                   ; restore default interrupt table address
152   065C E2 77 06         jp po, exit_with_ret      ; check int was enabled by default. no? just do retn
153   065F 2A 23 C0         ld hl, (var_int_vector)   ; ...
154   0662 C3 65 06         jp exit_with_jp           ; yes? goto default int handler
155   0665
156   0665
157   0665              ; IN  - HL - jump address
158   0665              exit_with_jp:
159   0665 22 FF EF         ld (Exit_vector-1), hl
160   0668 3E C3            ld a, #c3                ; c3 - jp
161   066A 32 FE EF         ld (Exit_vector-2), a
162   066D C1               pop bc
163   066E E1               pop hl
164   066F F1               pop af
165   0670 ED 7B 21 C0      ld sp, (var_sp_reg)
166   0674 C3 FE EF         jp Exit_vector-2
167   0677
168   0677              exit_with_ret:
169   0677 21 ED 45         ld hl, #45ed             ; ed45 - retn; reverse bytes order
170   067A 22 FF EF         ld (Exit_vector-1), hl
171   067D C1               pop bc
172   067E E1               pop hl
173   067F F1               pop af
174   0680 ED 7B 21 C0      ld sp, (var_sp_reg)
175   0684 C3 FF EF         jp Exit_vector-1
176   0687
177   0687
178   0687              check_initialized:
179   0687 21 62 C0         ld hl, cfg_initialized     ; if (cfg_initialized == "magic word") Z = 0, else Z = 1
180   068A              .check;
181   068A 3E B1            ld a, #B1                  ; ...
182   068C ED A1            cpi                        ; ... hl++
183   068E C0               ret nz                     ; ...
184   068F 3E 5B            ld a, #5B                  ; ...
185   0691 ED A1            cpi                        ; ... hl++
186   0693 C0               ret nz                     ; ...
187   0694 3E 00            ld a, #00                  ; ...
188   0696 ED A1            cpi                        ; ... hl++
189   0698 C0               ret nz                     ; ...
190   0699 3E B5            ld a, #B5                  ; ...
191   069B ED A1            cpi                        ; ... hl++
192   069D C9               ret
193   069E
194   069E              save_initialized:
195   069E 21 B1 5B         ld hl, #5BB1               ; cfg_initialized = "magic word"
196   06A1 22 62 C0         ld (cfg_initialized+0), hl ; ...
197   06A4 21 00 B5         ld hl, #B500               ; ...
198   06A7 22 64 C0         ld (cfg_initialized+2), hl ; ...
199   06AA C9               ret
200   06AB
201   06AB              init_default_config:
202   06AB 01 12 00         ld bc, CFG_T+CFGEXT_T ; cfg_saved = cfg_default
203   06AE 11 50 C0         ld de, cfg_saved      ; ...
204   06B1 21 B3 09         ld hl, CFG_DEFAULT    ; ...
205   06B4 ED B0            ldir                  ; ...
206   06B6
207   06B6              load_config:
208   06B6 01 12 00         ld bc, CFG_T+CFGEXT_T ; cfg = cfg_saved
209   06B9 11 3E C0         ld de, cfg            ; ...
210   06BC 21 50 C0         ld hl, cfg_saved      ; ...
211   06BF ED B0            ldir                  ; ...
212   06C1 C9               ret                   ; ...
213   06C2
214   06C2              save_config:
215   06C2 01 12 00         ld bc, CFG_T+CFGEXT_T ; cfg_saved = cfg
216   06C5 11 50 C0         ld de, cfg_saved      ; ...
217   06C8 21 3E C0         ld hl, cfg            ; ...
218   06CB ED B0            ldir                  ; ...
219   06CD C9               ret
220   06CE
221   06CE
222   06CE              load_user_config:
223   06CE 21 00 20         ld hl, user_config_initialized ; check if magic world is written to flash
224   06D1 CD 8A 06         call check_initialized.check   ; if no - do no do anything
225   06D4 C0               ret nz                         ; ...
226   06D5 01 0F 00         ld bc, CFG_T                   ; else - cfg_saved = user_config
227   06D8 11 50 C0         ld de, cfg_saved               ; ...
228   06DB 21 04 20         ld hl, user_config             ; ...
229   06DE ED B0            ldir                           ; ...
230   06E0              .quirks:                           ; some options shouldn't be saved by user, so we just overwrite them from default config
231   06E0 3A BB 09         ld a, (CFG_DEFAULT+CFG_T.ay)   ; AY should be disabled only by detect_external_ay
232   06E3 32 58 C0         ld (cfg_saved+CFG_T.ay), a     ; ...
233   06E6 3A BC 09         ld a, (CFG_DEFAULT+CFG_T.sd)   ; SD is always autodetected
234   06E9 32 59 C0         ld (cfg_saved+CFG_T.sd), a     ; ...
235   06EC C9               ret
236   06ED
237   06ED              ; OUT -  A = 1 if error, 0 if ok
238   06ED              save_user_config:
239   06ED CD CD 13         call flash_is_supported        ; if flash isnt supported - set error flag and exit
240   06F0 28 06            jr z, .support_check_passed    ; ...
241   06F2 3E 01            ld a, 1                        ; ...
242   06F4 32 3D C0         ld (var_flash_error), a        ; ...
243   06F7 C9               ret                            ; ...
244   06F8              .support_check_passed:
245   06F8 FD 21 00 20      ld iy, user_config_sector      ; erase
246   06FC CD 88 13         call flash_erase_sector        ; ...
247   06FF DD 21 3E C0      ld ix, cfg                     ; program config to flash
248   0703 FD 21 04 20      ld iy, user_config             ; ...
249   0707 06 0F            ld b, CFG_T                    ; ...
250   0709 CD 74 13         call flash_program             ; ...
251   070C DD 21 62 C0      ld ix, cfg_initialized         ; program magic word to flash
252   0710 FD 21 00 20      ld iy, user_config_initialized ; ...
253   0714 06 04            ld b, 4                        ; ...
254   0716 CD 74 13         call flash_program             ; ...
255   0719 AF               xor a                          ; clear error flag
256   071A 32 3D C0         ld (var_flash_error), a        ; ...
257   071D C9               ret
258   071E
259   071E
260   071E              init_cpld:
261   071E              .check_alt48rom:
262   071E 3A 44 C0         ld a, (cfg.rom48)           ; if alternative 48k rom enabled - disable 128 menu
263   0721 B7               or a                        ; ... this is required because 128 menu isn't compatible
264   0722 28 0E            jr z, .check_7ffd_disabled  ; ... with currently used Looking Glass 48K rom
265   0724 3A 40 C0         ld a, (cfg.machine)         ; ... however +3e works with looking glass flawlessly
266   0727 FE 02            cp 2                        ; ...
267   0729 28 07            jr z, .check_7ffd_disabled  ; ...
268   072B 3E 10            ld a, #10                   ; ...
269   072D 01 FD 7F         ld bc, #7ffd                ; ...
270   0730 ED 79            out (c), a                  ; ...
271   0732              .check_7ffd_disabled:
272   0732 3A 40 C0         ld a, (cfg.machine)         ; if machine == 48 - set 7ffd rom to basic48
273   0735 B7               or a                        ; ... this is required for case when machine will be
274   0736 20 07            jr nz, .check_1ffd_disabled ; ... changed later by magic menu - this prevents
275   0738 3E 10            ld a, #10                   ; ... hang if user changes machine while basic48 active
276   073A 01 FD 7F         ld bc, #7ffd                ; ...
277   073D ED 79            out (c), a                  ; ...
278   073F              .check_1ffd_disabled:
279   073F 3A 40 C0         ld a, (cfg.machine)         ; if machine != +3 - set 1ffd rom to basic48
280   0742 FE 02            cp 2                        ; ... this is required for case when +3 will be
281   0744 28 07            jr z, .do_load              ; ... activated later by magic menu - this prevents
282   0746 3E 04            ld a, #4                    ; ... hang if user activate +3 while basic48 active
283   0748 01 FD 1F         ld bc, #1ffd                ; ...
284   074B ED 79            out (c), a                  ; ...
285   074D              .do_load:
286   074D 06 0F            ld b, CFG_T        ; B = registers count
287   074F 0E FF            ld c, #ff          ;
288   0751 21 4C C0         ld hl, cfg+CFG_T-1 ; HL = &cfg[registers count-1]
289   0754 ED BB            otdr               ; do { b--; out(bc, *hl); hl--; } while(b)
290   0756              .do_load_ext:          ; same for extension board
291   0756 16 03            ld d, CFGEXT_T     ; ...
292   0758 01 FF E1         ld bc, #e1ff       ; ...
293   075B 21 4D C0         ld hl, cfgext      ; ...
294   075E              .do_load_ext_loop:     ; ...
295   075E 7E               ld a, (hl)         ; ...
296   075F ED 79            out (c), a         ; ...
297   0761 23               inc hl             ; ...
298   0762 04               inc b              ; ...
299   0763 15               dec d              ; ...
300   0764 20 F8            jr nz, .do_load_ext_loop ; ...
301   0766 C9               ret
302   0767
303   0767
304   0767              detect_sd_card:
305   0767 DB 77            in a, (#77)                 ; read sd_cd state from ZC status port
306   0769 CB 47            bit 0, a                    ; check sd_cd == 0 (card is insert)
307   076B 28 05            jr z, .is_insert            ; yes?
308   076D              .no_card:
309   076D AF               xor a                       ; sd = OFF
310   076E 32 59 C0         ld (cfg_saved.sd), a        ; ...
311   0771 C9               ret
312   0772              .is_insert:
313   0772 3E 01            ld a, 1                     ; sd = divmmc
314   0774 32 59 C0         ld (cfg_saved.sd), a        ; ...
315   0777 C9               ret
316   0778
317   0778
318   0778              ; OUT -  A = 1 if ext board present, 0 otherwise
319   0778              ; OUT -  F - garbage
320   0778              ; OUT - BC - garbage
321   0778              detect_ext_board:
322   0778 01 FF E0         ld bc, #e0ff    ; read port #e0ff
323   077B ED 78            in a, (c)       ; ...
324   077D 47               ld b, a         ; if (result & 0xF0 != 0) - return
325   077E E6 F0            and #f0         ; ...
326   0780 28 05            jr z, .detected ; ...
327   0782              .not_detected:
328   0782 AF               xor a
329   0783 32 3C C0         ld (var_ext_presence), a
330   0786 C9               ret
331   0787              .detected
332   0787 3E 01            ld a, 1
333   0789 32 3C C0         ld (var_ext_presence), a
334   078C AF               xor a
335   078D CB 40            bit 0, b     ; check TSFM jumper
336   078F 28 02            jr z, .cfg_tsfm
337   0791 3E 01            ld a, 1
338   0793              .cfg_tsfm:
339   0793 32 5F C0         ld (cfgext_saved.tsfm), a
340   0796 AF               xor a
341   0797 CB 48            bit 1, b     ; check SAA jumper
342   0799 28 02            jr z, .cfg_saa
343   079B 3E 01            ld a, 1
344   079D              .cfg_saa:
345   079D 32 60 C0         ld (cfgext_saved.saa), a
346   07A0 AF               xor a
347   07A1 CB 50            bit 2, b     ; check GS jumper
348   07A3 28 02            jr z, .cfg_gs
349   07A5 3E 01            ld a, 1
350   07A7              .cfg_gs:
351   07A7 32 61 C0         ld (cfgext_saved.gs), a
352   07AA C9               ret
353   07AB
354   07AB
355   07AB              ; Check if external AY addon is connected to zx bus
356   07AB              ; If yes - disable internal AY and TSFM on extension board
357   07AB              detect_external_ay:
358   07AB 01 FF 08         ld bc, #08ff    ; disable main AY
359   07AE AF               xor a           ; ...
360   07AF ED 79            out (c), a      ; ...
361   07B1 06 E1            ld b, #e1       ; disable extension board's AY
362   07B3 ED 79            out (c), a      ; ...
363   07B5 01 FD FF         ld bc, #fffd    ; set AY register = R6
364   07B8 3E 06            ld a, 6         ; ...
365   07BA ED 79            out (c), a      ; ...
366   07BC 06 BF            ld b, #bf       ; write some value to register
367   07BE ED 79            out (c), a      ; ...
368   07C0 06 FF            ld b, #ff       ; read back this value
369   07C2 ED 78            in a, (c)       ; ...
370   07C4 FE 06            cp 6                      ; if read and written values are same - disable internal AY
371   07C6 C0               ret nz                    ; ...
372   07C7 AF               xor a                     ; ...
373   07C8 32 58 C0         ld (cfg_saved.ay), a      ; ...
374   07CB 32 5F C0         ld (cfgext_saved.tsfm), a ; ...
375   07CE C9               ret
376   07CF
377   07CF
378   07CF              ; Check if external BDI (TR-DOS) addon is connected to zx-bus
379   07CF              ; If yes - set SD to ZC mode
380   07CF              detect_external_bdi:
381   07CF 3E 10            ld a, #10                ; BDI entry points is inactive if basic128 is selected
382   07D1 01 FD 7F         ld bc, #7ffd             ; ... so we choose basic48
383   07D4 ED 79            out (c), a               ; ...
384   07D6 3E C9            ld a, #c9                ; write RET opcode to 5cc2
385   07D8 21 C2 5C         ld hl, #5cc2             ; ...
386   07DB 77               ld (hl), a               ; ...
387   07DC CD F1 07         call .sub                ; do tr-dos call
388   07DF FE 42            cp #42                   ; if there is no tr-dos then our #3d2f handler will be called, which sets a = #42
389   07E1 3E 00            ld a, #0                 ; revert to default #7ffd state
390   07E3 ED 79            out (c), a               ; ...
391   07E5 C8               ret z                    ; if a == #42 (no tr-dos) - just exit
392   07E6              .reconfig:                   ; ... otherwise disable esxdos
393   07E6 3A 59 C0         ld a, (cfg_saved.sd)     ; if (sd != off) sd = zc
394   07E9 B7               or a                     ; ...
395   07EA C8               ret z                    ; ...
396   07EB 3E 02            ld a, 2                  ; ...
397   07ED 32 59 C0         ld (cfg_saved.sd), a     ; ...
398   07F0 C9               ret
399   07F1              .sub:
400   07F1 E5               push hl                  ; call tr-dos rom procedure, which just does ret to HL
401   07F2 C3 2F 3D         jp trdos_3d2f_entrypoint ; ...
402   07F5
403   07F5
404   07F5              ; Check if user holds CS key on poweron. If true - boot with custom rom
405   07F5              check_custom_rom:
406   07F5 3E FE            ld a, #fe                    ; read cs,z,x,c,v
407   07F7 DB FE            in a, (#fe)                  ; ...
408   07F9 CB 47            bit 0, a                     ; check CS is pressed
409   07FB 20 0A            jr nz, .check_custom_rom     ; ... skip menu if no
410   07FD              .show_menu:
411   07FD 3E 01            ld a, 1                      ; show magic border
412   07FF 01 FF 01         ld bc, #01ff                 ; ...
413   0802 ED 79            out (c), a                   ; ...
414   0804 CD 39 09         call bootmenu                ; ... else show boot menu
415   0807              .check_custom_rom:
416   0807 3A 55 C0         ld a, (cfg_saved.custom_rom) ; which rom was choosen?
417   080A B7               or a                         ; ... do nothing if default
418   080B C8               ret z                        ; ...
419   080C              .custom_rom_boot:
420   080C AF               xor a                        ; else - disable ula+
421   080D 32 5A C0         ld (cfg_saved.ulaplus), a    ; ...
422   0810 3A 59 C0         ld a, (cfg_saved.sd)         ; if (sd != off) sd = zc
423   0813 B7               or a                         ; ...
424   0814 C8               ret z                        ; ...
425   0815 3E 02            ld a, 2                      ; ...
426   0817 32 59 C0         ld (cfg_saved.sd), a         ; ...
427   081A C9               ret
428   081B
429   081B
430   081B              ; OUT - A bit 1 if we are entering pause, 0 otherwise
431   081B              check_entering_pause:
432   081B AF               xor a                       ; read pause key state in bit 1 of #00FF port
433   081C DB FF            in a, (#ff)                 ; ...
434   081E C9               ret
435   081F
436   081F
437   081F              ; OUT -  A = 1 if we are entering menu, A = 2 if we are leaving menu, A = 0 otherwise
438   081F              ; OUT -  F - garbage
439   081F              check_entering_menu:
440   081F AF               xor a                       ; read magic key state in bit 0 of #00FF port
441   0820 DB FF            in a, (#ff)                 ; ...
442   0822 CB 47            bit 0, a                    ; check key is hold
443   0824 20 0E            jr nz, .is_hold             ; yes?
444   0826              .not_hold:
445   0826 3A 26 C0         ld a, (var_magic_leave_cnt) ; leave_counter++
446   0829 3C               inc a                       ; ...
447   082A 32 26 C0         ld (var_magic_leave_cnt), a ; ...
448   082D FE 02            cp MENU_LEAVE_DELAY         ; if (counter == MENU_LEAVE_DELAY) - return 2
449   082F 20 11            jr nz, .return0             ; ...
450   0831 3E 02            ld a, 2
451   0833 C9               ret
452   0834              .is_hold:
453   0834 3A 25 C0         ld a, (var_magic_enter_cnt) ; enter_counter++
454   0837 3C               inc a                       ; ...
455   0838 32 25 C0         ld (var_magic_enter_cnt), a ; ...
456   083B FE 28            cp MENU_ENTER_DELAY         ; if (counter == MENU_ENTER_DELAY) - return 1
457   083D 20 03            jr nz, .return0             ; ...
458   083F 3E 01            ld a, 1
459   0841 C9               ret
460   0842              .return0:
461   0842 AF               xor a
462   0843 C9               ret
463   0844
464   0844
465   0844              ; OUT - AF - garbage
466   0844              ; OUT - BC - garbage
467   0844              delay_10ms:
468   0844 0E 07            ld c, 7
469   0846 3A 41 C0         ld a, (cfg.clock)
470   0849 B7               or a
471   084A 28 11            jr z, .loop
472   084C 0E 09            ld c, 9
473   084E 3D               dec a
474   084F 28 0C            jr z, .loop
475   0851 0E 0B            ld c, 11
476   0853 3D               dec a
477   0854 28 07            jr z, .loop
478   0856 0E 0E            ld c, 7*2
479   0858 3D               dec a
480   0859 28 02            jr z, .loop
481   085B 0E 1C            ld c, 7*4
482   085D              .loop:
483   085D 79               ld a, c
484   085E              .loop_outer:
485   085E 06 FF            ld b, 255                 ; ~1ms cycle at 3.5MHz
486   0860              .loop_inner:                  ; ...
487   0860 10 FE            djnz .loop_inner          ; 13 T-states
488   0862 3D               dec a
489   0863 20 F9            jr nz, .loop_outer
490   0865 C9               ret
491   0866
492   0866
493   0866              ; read non-magic im2 table and returns im2 handler address
494   0866              ; IN  -  A - im2 table address hight byte
495   0866              ; OUT - HL - handler address
496   0866              ; OUT - AF - garbage
497   0866              get_im2_handler:
498   0866 67               ld h, a                   ; HL = im2 table address
499   0867 2E FF            ld l, #ff                 ; HL = im2 table address
500   0869 3E 2A            ld a, #2a                 ; 2a - ld hl, (nn)
501   086B 32 06 F0         ld (Readout_vector-2), a  ; ...
502   086E 22 07 F0         ld (Readout_vector-1), hl ; HL was set earlier by im2 table address
503   0871 3E C9            ld a, #c9                 ; c9 - ret
504   0873 32 09 F0         ld (Readout_vector+1), a  ; ...
505   0876 CD 06 F0         call Readout_vector-2     ; HL = default im2 handler address
506   0879 C9               ret
507   087A
508   087A
509   087A              save:
510   087A              .mute_gs:
511   087A 3A 3C C0         ld a, (var_ext_presence) ; if (no_ext_pcb || gs_is_disabled) - skip gs
512   087D B7               or a                     ; ...this is required to be compatible with DivIDE
513   087E 28 0A            jr z, .mute_saa1099      ; ...which uses same port #bb
514   0880 3A 4F C0         ld a, (cfgext.gs)        ; ...
515   0883 B7               or a                     ; ...
516   0884 28 04            jr z, .mute_saa1099      ; ...
517   0886 3E FA            ld a, #fa                ; send command Out zero_to_zero
518   0888 D3 BB            out (#bb), a             ; ...
519   088A              .mute_saa1099:
520   088A CD D6 08         call mute_saa1099
521   088D              .save_ay:
522   088D 21 00 C0         ld hl, var_save_ay ; select first AY chip in TurboSound
523   0890 3E FF            ld a, #ff          ; ...
524   0892 CD BD 08         call .save_ay_sub
525   0895 3E FE            ld a, #fe          ; select second AY chip in TurboSound
526   0897 CD BD 08         call .save_ay_sub
527   089A              .save_screen:
528   089A 01 00 1B         ld bc, 6912
529   089D 11 66 C0         ld de, var_save_screen
530   08A0 21 00 40         ld hl, #4000
531   08A3 ED B0            ldir
532   08A5              .save_ulaplus:
533   08A5 01 3B BF         ld bc, #bf3b       ; set ulaplus address = mode register
534   08A8 3E 40            ld a, #40          ; ...
535   08AA ED 79            out (c), a         ; ...
536   08AC 01 3B FF         ld bc, #ff3b       ; save mode register value
537   08AF ED 78            in a, (c)          ; ...
538   08B1 CB 7F            bit 7, a             ; if bit 7 != 0 - assume no ulaplus there
539   08B3 28 01            jr z, .save_ulaplus1 ; ... so save 0 (disabled) state
540   08B5 AF               xor a                ; ... for case when user will enable ulaplus in menu later
541   08B6              .save_ulaplus1:
542   08B6 32 20 C0         ld (var_save_ulaplus), a ; ...
543   08B9 AF               xor a              ; disable ulaplus
544   08BA ED 79            out (c), a         ; ...
545   08BC C9               ret
546   08BD
547   08BD              .save_ay_sub:
548   08BD 01 FD FF         ld bc, #fffd       ; ...
549   08C0 ED 79            out (c), a         ; ...
550   08C2 16 10            ld d, 16           ; register_number=16
551   08C4              .save_ay_sub_loop:
552   08C4 15               dec d              ; register_number--
553   08C5 06 FF            ld b, #ff          ; select register number
554   08C7 ED 51            out (c), d         ; ...
555   08C9 ED 78            in a, (c)          ; read register
556   08CB 77               ld (hl), a         ; save to ram
557   08CC AF               xor a              ; set register to 0
558   08CD 06 BF            ld b, #bf          ; ...
559   08CF ED 79            out (c), a         ; ...
560   08D1 23               inc hl             ; ram++
561   08D2 B2               or d               ; register_number == 0?
562   08D3 20 EF            jr nz, .save_ay_sub_loop
563   08D5 C9               ret
564   08D6
565   08D6              mute_saa1099:
566   08D6 01 FF FF         ld bc, #ffff       ; select saa register
567   08D9 3E 1C            ld a, #1c          ; ...
568   08DB ED 79            out (c), a         ; ...
569   08DD 06 FE            ld b, #fe          ; mute
570   08DF AF               xor a              ; ...
571   08E0 ED 79            out (c), a         ; ...
572   08E2 C9               ret
573   08E3
574   08E3
575   08E3              restore:
576   08E3              .restore_ulaplus:
577   08E3 01 3B BF         ld bc, #bf3b       ; set ulaplus address = mode register
578   08E6 3E 40            ld a, #40          ; ...
579   08E8 ED 79            out (c), a         ; ...
580   08EA 01 3B FF         ld bc, #ff3b       ; restore mode register value
581   08ED 3A 20 C0         ld a, (var_save_ulaplus) ; ...
582   08F0 ED 79            out (c), a         ; ...
583   08F2              .restore_screen:
584   08F2 CD 2D 09         call restore_screen
585   08F5              .restore_ay:
586   08F5 21 10 C0         ld hl, var_save_ay+16 ; select second AY chip in TurboSound
587   08F8 3E FE            ld a, #fe             ; ...
588   08FA CD 16 09         call .restore_ay_sub
589   08FD 21 00 C0         ld hl, var_save_ay    ; select first AY chip in TurboSound
590   0900 3E FF            ld a, #ff             ; ...
591   0902 CD 16 09         call .restore_ay_sub
592   0905              .restore_gs:
593   0905 3A 3C C0         ld a, (var_ext_presence) ; if (no_ext_pcb || gs_is_disabled) - skip gs
594   0908 B7               or a                     ; ...this is required to be compatible with DivIDE
595   0909 28 0A            jr z, .restore_ret       ; ...which uses same port #bb
596   090B 3A 4F C0         ld a, (cfgext.gs)        ; ...
597   090E B7               or a                     ; ...
598   090F 28 04            jr z, .restore_ret       ; ...
599   0911 3E 60            ld a, #60                ; send command Get Song Position
600   0913 D3 BB            out (#bb), a             ; ...
601   0915              .restore_ret:
602   0915 C9               ret
603   0916
604   0916              .restore_ay_sub:
605   0916 01 FD FF         ld bc, #fffd       ; ...
606   0919 ED 79            out (c), a         ; ...
607   091B 16 10            ld d, 16           ; register_number=16
608   091D              .restore_ay_sub_loop:
609   091D 15               dec d              ; register_number--
610   091E 06 FF            ld b, #ff          ; select register number
611   0920 ED 51            out (c), d         ; ...
612   0922 06 BF            ld b, #bf          ; restore register
613   0924 7E               ld a, (hl)         ; ...
614   0925 ED 79            out (c), a         ; ...
615   0927 23               inc hl             ; ram++
616   0928 AF               xor a              ; register_number == 0?
617   0929 B2               or d               ; ...
618   092A 20 F1            jr nz, .restore_ay_sub_loop ;
619   092C C9               ret
620   092D
621   092D              restore_screen:
622   092D 01 00 1B         ld bc, 6912
623   0930 11 00 40         ld de, #4000
624   0933 21 66 C0         ld hl, var_save_screen
625   0936 ED B0            ldir
626   0938 C9               ret
627   0939
628   0939
629   0939              bootmenu:
630   0939 CD CC 0D         call input_init
631   093C 21 4B 10         ld hl, menuboot
632   093F CD 17 0E         call menu_init
633   0942 CD 86 09         call menu_input_loop
634   0945 CD A2 09         call wait_for_keys_release
635   0948 C9               ret
636   0949
637   0949
638   0949              nmi_pause:
639   0949 AF               xor a
640   094A 32 27 C0         ld (var_exit_flag), a
641   094D CD D7 0D         call pause_init
642   0950              .loop:
643   0950 FB               ei
644   0951 76               halt
645   0952 CD FF 0D         call pause_process
646   0955 3A 27 C0         ld a, (var_exit_flag)
647   0958 B7               or a
648   0959 28 F5            jr z, .loop
649   095B C9               ret
650   095C
651   095C
652   095C              nmi_menu:
653   095C CD 87 06         call check_initialized
654   095F 28 0C            jr z, .init1
655   0961 CD AB 06         call init_default_config
656   0964 CD 78 07         call detect_ext_board
657   0967 CD B6 06         call load_config
658   096A CD 9E 06         call save_initialized
659   096D              .init1:
660   096D 21 30 0F         ld hl, menudefault       ; if (ext board present) menu = menuext; else menu = menudefault;
661   0970 3A 3C C0         ld a, (var_ext_presence) ; ...
662   0973 B7               or a                     ; ...
663   0974 28 03            jr z, .init2             ; ...
664   0976 21 99 0F         ld hl, menuext           ; ...
665   0979              .init2:
666   0979 22 2F C0         ld (var_menumain), hl
667   097C CD 17 0E         call menu_init
668   097F              .loop:
669   097F CD 86 09         call menu_input_loop
670   0982 CD A2 09         call wait_for_keys_release
671   0985 C9               ret
672   0986
673   0986
674   0986              menu_input_loop:
675   0986 AF               xor a
676   0987 32 27 C0         ld (var_exit_flag), a
677   098A 32 28 C0         ld (var_exit_reboot), a
678   098D 32 3D C0         ld (var_flash_error), a
679   0990              .loop:
680   0990 FB               ei
681   0991 76               halt
682   0992 CD 96 0D         call input_process ; B = 32 if exit key pressed
683   0995 CB 68            bit 5, b
684   0997 C0               ret nz
685   0998 CD 62 0E         call menu_process
686   099B 3A 27 C0         ld a, (var_exit_flag)
687   099E B7               or a
688   099F 28 EF            jr z, .loop
689   09A1 C9               ret
690   09A2
691   09A2
692   09A2              wait_for_keys_release:
693   09A2              .loop:
694   09A2 FB               ei
695   09A3 76               halt
696   09A4 CD 96 0D         call input_process ; B = 0 if no keys pressed
697   09A7 AF               xor a
698   09A8 B0               or b
699   09A9 20 F7            jr nz, .loop
700   09AB AF               xor a              ; read magic/pause keys state from port #00FF
701   09AC DB FF            in a, (#ff)        ; ...
702   09AE E6 03            and #03            ; ...
703   09B0 20 F0            jr nz, .loop
704   09B2 C9               ret
705   09B3
706   09B3
707   09B3              ; Includes
708   09B3                  include config.asm
# file opened: config.asm
  1+  09B3              POWERON_DELAY           EQU 40 ; *20ms, for ps/2 keyboard initialization
  2+  09B3
  3+  09B3              MENU_ENTER_DELAY        EQU 40 ; 400ms
  4+  09B3              MENU_LEAVE_DELAY        EQU 2  ; 20ms
  5+  09B3
  6+  09B3              INPUT_REPEAT            EQU 2
  7+  09B3              INPUT_REPEAT_FIRST      EQU 11
  8+  09B3              INPUT_BEEP_DELAY        EQU 255
  9+  09B3
 10+  09B3              MENU_HEADER_ATTR        EQU #47
 11+  09B3              MENU_BODY_ATTR          EQU #78
 12+  09B3              MENU_SELECT_ATTR        EQU #68
 13+  09B3
 14+  09B3              PAUSE_WIDTH             EQU 7
 15+  09B3              PAUSE_HEIGHT            EQU 3 ; see pause.asm to really change
 16+  09B3              PAUSE_X                 EQU (32-PAUSE_WIDTH)/2
 17+  09B3              PAUSE_Y                 EQU (24-PAUSE_HEIGHT)/2
 18+  09B3              PAUSE_BODY_ATTR         EQU #00
 19+  09B3              PAUSE_TEXT_ATTR         EQU #C7
 20+  09B3
 21+  09B3              SAVE_ANIMATION_LEN      EQU 8
 22+  09B3
 23+  09B3
 24+  09B3                  IFDEF REV_C
 25+  09B3 ~                    DEFINE BRIGHT_DEFAULT 1
 26+  09B3                  ELSE
 27+  09B3                      DEFINE BRIGHT_DEFAULT 0
 28+  09B3                  ENDIF
 29+  09B3
 30+  09B3
 31+  09B3                  STRUCT CFG_T
 32+  09B3 ~            _reserv0   DB 0
 33+  09B3 ~            _reserv1   DB 0
 34+  09B3 ~            machine    DB 3
 35+  09B3 ~            clock      DB 0
 36+  09B3 ~            panning    DB 1
 37+  09B3 ~            custom_rom DB 0
 38+  09B3 ~            rom48      DB 0
 39+  09B3 ~            joystick   DB 0
 40+  09B3 ~            ay         DB 1
 41+  09B3 ~            sd         DB 2
 42+  09B3 ~            ulaplus    DB 1
 43+  09B3 ~            dac        DB 3
 44+  09B3 ~            spk        DB 1
 45+  09B3 ~            sdind      DB 1
 46+  09B3 ~            bright     DB BRIGHT_DEFAULT
 47+  09B3 ~            ENDIF
 48+  09B3                  ENDS
 49+  09B3
 50+  09B3                  STRUCT CFGEXT_T
 51+  09B3 ~            tsfm       DB 1
 52+  09B3 ~            saa        DB 1
 53+  09B3 ~            gs         DB 1
 54+  09B3                  ENDS
 55+  09B3
 56+  09B3
 57+  09B3 00 00 03 00  CFG_DEFAULT CFG_T
 57+  09B7 01 00 00 00
 57+  09BB 01 02 01 03
 57+  09BF 01 01 00
 58+  09C2 01 01 01     CFGEXT_DEFAULT CFGEXT_T
 59+  09C5
# file closed: config.asm
709   09C5                  include draw.asm
# file opened: draw.asm
  1+  09C5              ; IN  -  B = pixel row (0..191)
  2+  09C5              ; IN  -  C = character column (0..31)
  3+  09C5              ; OUT - HL = screen address
  4+  09C5              ; OUT - DE = garbage
  5+  09C5              ; OUT - AF = garbage
  6+  09C5              coords_to_pixel_address:
  7+  09C5 26 00            ld  h, 0
  8+  09C7 68               ld  l, b            ; hl = row
  9+  09C8 29               add hl, hl          ; hl = row number * 2
 10+  09C9 11 D6 09         ld  de, screen_map  ; de = screen map
 11+  09CC 19               add hl, de          ; de = screen_map + (row * 2)
 12+  09CD 7E               ld  a, (hl)         ; implements ld hl, (hl)
 13+  09CE 23               inc hl
 14+  09CF 66               ld  h, (hl)
 15+  09D0 6F               ld  l, a            ; hl = address of first pixel in screen map
 16+  09D1 16 00            ld  d, 0
 17+  09D3 59               ld  e, c            ; de = X (character based)
 18+  09D4 19               add hl, de          ; hl = screen addr + 32
 19+  09D5 C9               ret                 ; return screen_map[pixel_row]
 20+  09D6
 21+  09D6              screen_map:
 22+  09D6 00 40 00 41      DW #4000, #4100, #4200, #4300, #4400, #4500, #4600, #4700
 22+  09DA 00 42 00 43
 22+  09DE 00 44 00 45
 22+  09E2 00 46 00 47
 23+  09E6 20 40 20 41      DW #4020, #4120, #4220, #4320, #4420, #4520, #4620, #4720
 23+  09EA 20 42 20 43
 23+  09EE 20 44 20 45
 23+  09F2 20 46 20 47
 24+  09F6 40 40 40 41      DW #4040, #4140, #4240, #4340, #4440, #4540, #4640, #4740
 24+  09FA 40 42 40 43
 24+  09FE 40 44 40 45
 24+  0A02 40 46 40 47
 25+  0A06 60 40 60 41      DW #4060, #4160, #4260, #4360, #4460, #4560, #4660, #4760
 25+  0A0A 60 42 60 43
 25+  0A0E 60 44 60 45
 25+  0A12 60 46 60 47
 26+  0A16 80 40 80 41      DW #4080, #4180, #4280, #4380, #4480, #4580, #4680, #4780
 26+  0A1A 80 42 80 43
 26+  0A1E 80 44 80 45
 26+  0A22 80 46 80 47
 27+  0A26 A0 40 A0 41      DW #40A0, #41A0, #42A0, #43A0, #44A0, #45A0, #46A0, #47A0
 27+  0A2A A0 42 A0 43
 27+  0A2E A0 44 A0 45
 27+  0A32 A0 46 A0 47
 28+  0A36 C0 40 C0 41      DW #40C0, #41C0, #42C0, #43C0, #44C0, #45C0, #46C0, #47C0
 28+  0A3A C0 42 C0 43
 28+  0A3E C0 44 C0 45
 28+  0A42 C0 46 C0 47
 29+  0A46 E0 40 E0 41      DW #40E0, #41E0, #42E0, #43E0, #44E0, #45E0, #46E0, #47E0
 29+  0A4A E0 42 E0 43
 29+  0A4E E0 44 E0 45
 29+  0A52 E0 46 E0 47
 30+  0A56 00 48 00 49      DW #4800, #4900, #4A00, #4B00, #4C00, #4D00, #4E00, #4F00
 30+  0A5A 00 4A 00 4B
 30+  0A5E 00 4C 00 4D
 30+  0A62 00 4E 00 4F
 31+  0A66 20 48 20 49      DW #4820, #4920, #4A20, #4B20, #4C20, #4D20, #4E20, #4F20
 31+  0A6A 20 4A 20 4B
 31+  0A6E 20 4C 20 4D
 31+  0A72 20 4E 20 4F
 32+  0A76 40 48 40 49      DW #4840, #4940, #4A40, #4B40, #4C40, #4D40, #4E40, #4F40
 32+  0A7A 40 4A 40 4B
 32+  0A7E 40 4C 40 4D
 32+  0A82 40 4E 40 4F
 33+  0A86 60 48 60 49      DW #4860, #4960, #4A60, #4B60, #4C60, #4D60, #4E60, #4F60
 33+  0A8A 60 4A 60 4B
 33+  0A8E 60 4C 60 4D
 33+  0A92 60 4E 60 4F
 34+  0A96 80 48 80 49      DW #4880, #4980, #4A80, #4B80, #4C80, #4D80, #4E80, #4F80
 34+  0A9A 80 4A 80 4B
 34+  0A9E 80 4C 80 4D
 34+  0AA2 80 4E 80 4F
 35+  0AA6 A0 48 A0 49      DW #48A0, #49A0, #4AA0, #4BA0, #4CA0, #4DA0, #4EA0, #4FA0
 35+  0AAA A0 4A A0 4B
 35+  0AAE A0 4C A0 4D
 35+  0AB2 A0 4E A0 4F
 36+  0AB6 C0 48 C0 49      DW #48C0, #49C0, #4AC0, #4BC0, #4CC0, #4DC0, #4EC0, #4FC0
 36+  0ABA C0 4A C0 4B
 36+  0ABE C0 4C C0 4D
 36+  0AC2 C0 4E C0 4F
 37+  0AC6 E0 48 E0 49      DW #48E0, #49E0, #4AE0, #4BE0, #4CE0, #4DE0, #4EE0, #4FE0
 37+  0ACA E0 4A E0 4B
 37+  0ACE E0 4C E0 4D
 37+  0AD2 E0 4E E0 4F
 38+  0AD6 00 50 00 51      DW #5000, #5100, #5200, #5300, #5400, #5500, #5600, #5700
 38+  0ADA 00 52 00 53
 38+  0ADE 00 54 00 55
 38+  0AE2 00 56 00 57
 39+  0AE6 20 50 20 51      DW #5020, #5120, #5220, #5320, #5420, #5520, #5620, #5720
 39+  0AEA 20 52 20 53
 39+  0AEE 20 54 20 55
 39+  0AF2 20 56 20 57
 40+  0AF6 40 50 40 51      DW #5040, #5140, #5240, #5340, #5440, #5540, #5640, #5740
 40+  0AFA 40 52 40 53
 40+  0AFE 40 54 40 55
 40+  0B02 40 56 40 57
 41+  0B06 60 50 60 51      DW #5060, #5160, #5260, #5360, #5460, #5560, #5660, #5760
 41+  0B0A 60 52 60 53
 41+  0B0E 60 54 60 55
 41+  0B12 60 56 60 57
 42+  0B16 80 50 80 51      DW #5080, #5180, #5280, #5380, #5480, #5580, #5680, #5780
 42+  0B1A 80 52 80 53
 42+  0B1E 80 54 80 55
 42+  0B22 80 56 80 57
 43+  0B26 A0 50 A0 51      DW #50A0, #51A0, #52A0, #53A0, #54A0, #55A0, #56A0, #57A0
 43+  0B2A A0 52 A0 53
 43+  0B2E A0 54 A0 55
 43+  0B32 A0 56 A0 57
 44+  0B36 C0 50 C0 51      DW #50C0, #51C0, #52C0, #53C0, #54C0, #55C0, #56C0, #57C0
 44+  0B3A C0 52 C0 53
 44+  0B3E C0 54 C0 55
 44+  0B42 C0 56 C0 57
 45+  0B46 E0 50 E0 51      DW #50E0, #51E0, #52E0, #53E0, #54E0, #55E0, #56E0, #57E0
 45+  0B4A E0 52 E0 53
 45+  0B4E E0 54 E0 55
 45+  0B52 E0 56 E0 57
 46+  0B56
 47+  0B56
 48+  0B56              ; IN  -  B = pixel row (0..191)
 49+  0B56              ; IN  -  C = character column (0..31)
 50+  0B56              ; OUT - HL = screen address
 51+  0B56              ; OUT - AF = garbage
 52+  0B56              coords_to_attribute_address_pixelrow:
 53+  0B56                  ; attribute address - 010110vv vvvhhhhh
 54+  0B56 78               ld a, b    ; A = { v4, v3, v2, v1, v0, x, x, x }
 55+  0B57 07               rlca       ; A = { v2, v1, v0, x, x, x, v4, v3 }
 56+  0B58 07               rlca       ; ...
 57+  0B59 18 04            jr .do_work
 58+  0B5B              ; IN  -  B = character row (0..23)
 59+  0B5B              ; IN  -  C = character column (0..31)
 60+  0B5B              ; OUT - HL = screen address
 61+  0B5B              ; OUT -  A = garbage
 62+  0B5B              !coords_to_attribute_address:
 63+  0B5B                  ; attribute address - 010110vv vvvhhhhh
 64+  0B5B 78               ld a, b    ; A = { 0, 0, 0, v4, v3, v2, v1, v0 }
 65+  0B5C 0F               rrca       ; A = { v2, v1, v0, 0, 0, 0, v4, v3 }
 66+  0B5D 0F               rrca       ; ...
 67+  0B5E 0F               rrca       ; ...
 68+  0B5F              .do_work:
 69+  0B5F 67               ld h, a    ; save A temporary
 70+  0B60 A7 E6 E0         and a, #E0 ; A = { v2, v1, v0, 0, 0, 0 ,0 ,0 }
 71+  0B63 B1               or c       ; A = { v2, v1, v0, h4, h3, h2, h1, h0 }
 72+  0B64 6F               ld l, a    ;
 73+  0B65 7C               ld a, h    ; restore A = { v2, v1, v0, x, x, x, v4, v3 }
 74+  0B66 A7 E6 03         and a, #03 ; A = { 000000, v4, v3 }
 75+  0B69 B7 F6 58         or a, #58  ; A = { 010110, v4, v3 }
 76+  0B6C 67               ld h, a    ; HL = attribute address
 77+  0B6D C9               ret
 78+  0B6E
 79+  0B6E
 80+  0B6E              ; print one characters at specified coordinate
 81+  0B6E              ; IN  -  A = ascii code
 82+  0B6E              ; IN  -  B = row (0..191)
 83+  0B6E              ; IN  -  C = column (0..31)
 84+  0B6E              ; OUT - AF = garbage
 85+  0B6E              ; OUT -  B = garbage
 86+  0B6E              ; OUT - DE = garbage
 87+  0B6E              ; OUT - HL = garbage
 88+  0B6E              ; OUT - IX = garbage
 89+  0B6E              print_char:
 90+  0B6E D6 20            sub 32       ; A = A - 32 (offset of first printable ASCII code)
 91+  0B70 DD 21 00 00      ld ix, 0     ; IX = character index in font
 92+  0B74 16 00            ld d, 0      ; ..
 93+  0B76 5F               ld e, a      ; ..
 94+  0B77 DD 19            add ix, de   ; ..
 95+  0B79 DD 29            add ix, ix   ; ix *= 8 (8 bytes per character in font)
 96+  0B7B DD 29            add ix, ix   ; ...
 97+  0B7D DD 29            add ix, ix   ; ...
 98+  0B7F 11 18 14         ld de, font  ; ix = &font + character index
 99+  0B82 DD 19            add ix, de   ; ...
100+  0B84 AF               xor a        ; A = 0 (row counter)
101+  0B85              .loop:
102+  0B85 F5               push af
103+  0B86 CD C5 09         call coords_to_pixel_address ; HL = screen address
104+  0B89 DD 7E 00         ld a, (ix)         ; A = pixel data
105+  0B8C 77               ld (hl), a         ; draw pixel data to screen
106+  0B8D F1               pop af             ; restore A = row counter
107+  0B8E 04               inc b              ; row += 1
108+  0B8F DD 23            inc ix             ; next line in character
109+  0B91 3C               inc a              ; if (++A >= 8) - exit
110+  0B92 A7 E6 07         and a, 7           ; ...
111+  0B95 20 EE            jr nz, .loop       ; ...
112+  0B97 C9               ret
113+  0B98
114+  0B98
115+  0B98              ; print null-terminated string
116+  0B98              ; IN  -  B - row
117+  0B98              ; IN  -  C - column
118+  0B98              ; IN  - HL - string
119+  0B98              ; OUT -  C - last printed column
120+  0B98              ; OUT - HL - pointer to string 0 byte
121+  0B98              ; OUT - AF - garbage
122+  0B98              ; OUT -  B = garbage
123+  0B98              ; OUT - DE - garbage
124+  0B98              ; OUT - IX = garbage
125+  0B98              print_string:
126+  0B98 7E               ld a, (hl)              ; A = *string
127+  0B99 B7               or a                    ; if (A == 0) - exit
128+  0B9A C8               ret z                   ; ...
129+  0B9B C5               push bc
130+  0B9C E5               push hl
131+  0B9D CD 6E 0B         call print_char
132+  0BA0 E1               pop hl
133+  0BA1 C1               pop bc
134+  0BA2 23               inc hl                  ; string++
135+  0BA3 0C               inc c                   ; column++
136+  0BA4 18 F2            jr print_string
137+  0BA6 C9               ret
138+  0BA7
139+  0BA7
140+  0BA7              ; print null-terminated string reverse
141+  0BA7              ; IN  -  B - row
142+  0BA7              ; IN  -  C - column
143+  0BA7              ; IN  - HL - string
144+  0BA7              ; OUT -  C - last printed column
145+  0BA7              ; OUT - HL - pointer to string 0 byte
146+  0BA7              ; OUT - AF - garbage
147+  0BA7              ; OUT -  B = garbage
148+  0BA7              ; OUT - DE - garbage
149+  0BA7              ; OUT - IX = garbage
150+  0BA7              print_string_rev:
151+  0BA7 7E               ld a, (hl)              ; A = *string
152+  0BA8 B7               or a                    ; if (A == 0) - exit
153+  0BA9 C8               ret z                   ; ...
154+  0BAA C5               push bc
155+  0BAB E5               push hl
156+  0BAC CD 6E 0B         call print_char
157+  0BAF E1               pop hl
158+  0BB0 C1               pop bc
159+  0BB1 2B               dec hl                  ; string--
160+  0BB2 0D               dec c                   ; column--
161+  0BB3 18 F2            jr print_string_rev
162+  0BB5 C9               ret
163+  0BB6
164+  0BB6
165+  0BB6              ; IN  -  B - start row (0..23)
166+  0BB6              ; IN  -  C - start column (0..31)
167+  0BB6              ; IN  -  D - rows
168+  0BB6              ; IN  -  E - columns
169+  0BB6              ; OUT -  B - end row
170+  0BB6              ; OUT -  D - garbage
171+  0BB6              ; OUT -  E - garbage
172+  0BB6              ; OUT - AF - garbage
173+  0BB6              draw_box:
174+  0BB6 C5               push bc
175+  0BB7 D5               push de
176+  0BB8              .draw_header:
177+  0BB8 CD 5B 0B         call coords_to_attribute_address ; HL = attribute address
178+  0BBB 7B               ld a, e             ; A = columns
179+  0BBC              .draw_header_column:
180+  0BBC B7               or a                ; if (columns == 0) - goto next row
181+  0BBD 28 06            jr z, .draw_body    ; ...
182+  0BBF 36 47            ld (hl), MENU_HEADER_ATTR ; set attribute
183+  0BC1 23               inc hl              ; next column attribute address
184+  0BC2 3D               dec a               ; columns = columns - 1;
185+  0BC3 18 F7            jr .draw_header_column
186+  0BC5
187+  0BC5              .draw_body:
188+  0BC5 04               inc b               ; current_row += 1
189+  0BC6 15               dec d               ; rows -= 1
190+  0BC7 28 0D            jr z, .draw_body_end ; if (rows == 0) - exit
191+  0BC9 CD 5B 0B         call coords_to_attribute_address ; HL = attribute address
192+  0BCC 7B               ld a, e             ; A = columns
193+  0BCD              .draw_body_column:
194+  0BCD B7               or a                ; if (columns == 0) - goto next row
195+  0BCE 28 F5            jr z, .draw_body    ; ...
196+  0BD0 36 78            ld (hl), MENU_BODY_ATTR ; set attribute
197+  0BD2 23               inc hl              ; next column attribute address
198+  0BD3 3D               dec a               ; columns = columns - 1;
199+  0BD4 18 F7            jr .draw_body_column
200+  0BD6
201+  0BD6              .draw_body_end:
202+  0BD6 D1               pop de
203+  0BD7 C1               pop bc
204+  0BD8 C5               push bc
205+  0BD9 D5               push de
206+  0BDA CB 20            sla b               ; current_row = current_row_pixel_address
207+  0BDC CB 20            sla b               ; ...
208+  0BDE CB 20            sla b               ; ...
209+  0BE0 CB 22            sla d               ; rows = rows_pixels
210+  0BE2 CB 22            sla d               ; ...
211+  0BE4 CB 22            sla d               ; ...
212+  0BE6 15               dec d               ; rows_pixels -= 1 (fill be filled later by frame)
213+  0BE7              .fill:
214+  0BE7 D5               push de
215+  0BE8 D5               push de
216+  0BE9 CD C5 09         call coords_to_pixel_address
217+  0BEC D1               pop de
218+  0BED              .fill_line:
219+  0BED 36 00            ld (hl), 0          ; clear pixels
220+  0BEF 23               inc hl              ; column++
221+  0BF0 1D               dec e               ; columns--
222+  0BF1 20 FA            jr nz, .fill_line   ; if (columns == 0) - goto next row
223+  0BF3 D1               pop de
224+  0BF4 04               inc b               ; row++
225+  0BF5 15               dec d               ; rows--
226+  0BF6 20 EF            jr nz, .fill        ; if (rows == 0) - exit
227+  0BF8
228+  0BF8              .fill_end:
229+  0BF8 D1               pop de
230+  0BF9 C1               pop bc
231+  0BFA 04               inc b               ; current_row += 1
232+  0BFB CB 20            sla b               ; current_row = current_row_pixel_address
233+  0BFD CB 20            sla b               ; ...
234+  0BFF CB 20            sla b               ; ...
235+  0C01 15               dec d               ; rows -= 1
236+  0C02 CB 22            sla d               ; rows = rows_pixels
237+  0C04 CB 22            sla d               ; ...
238+  0C06 CB 22            sla d               ; ...
239+  0C08              .draw_frame_lr:
240+  0C08 D5               push de
241+  0C09 CD C5 09         call coords_to_pixel_address ; HL = pixel_address
242+  0C0C D1               pop de
243+  0C0D D5               push de
244+  0C0E 36 80            ld (hl), #80        ; draw left frame line
245+  0C10 16 00            ld d, 0
246+  0C12 19               add hl, de          ; pixel_address += columns
247+  0C13 2B               dec hl
248+  0C14 36 01            ld (hl), #01        ; draw right frame line
249+  0C16 D1               pop de
250+  0C17 04               inc b               ; current_row_pixel += 1
251+  0C18 15               dec d               ; rows -= 1
252+  0C19 20 ED            jr nz, .draw_frame_lr ; if (rows == 0) - exit
253+  0C1B
254+  0C1B              .draw_frame_low:
255+  0C1B 36 FF            ld (hl), #ff        ; draw low frame line starting from right corner
256+  0C1D 2B               dec hl              ; pixel_address -= one column
257+  0C1E 1D               dec e               ; columns -= 1
258+  0C1F 20 FA            jr nz, .draw_frame_low
259+  0C21
260+  0C21              .return:
261+  0C21 C9               ret
262+  0C22
263+  0C22
264+  0C22              ; IN  -  B - start row (0..191)
265+  0C22              ; IN  -  C - start column (0..31)
266+  0C22              ; IN  -  E - columns
267+  0C22              ; IN  - HL - menu addr
268+  0C22              ; OUT - AF - garbage
269+  0C22              ; OUT - BC - garbage
270+  0C22              ; OUT - DE - garbage
271+  0C22              ; OUT - HL - garbage
272+  0C22              ; OUT - IX - garbage
273+  0C22              draw_menu:
274+  0C22 79               ld a, c              ; column_to_print_value = start_column + columns - 3
275+  0C23 83               add a, e             ; ...
276+  0C24 D6 03            sub 3                ; ...
277+  0C26 5F               ld e, a              ; ...
278+  0C27 E5               push hl              ; IX = menu first item addr
279+  0C28 DD E1            pop ix               ; ...
280+  0C2A              .line_loop:
281+  0C2A DD 6E 00         ld l, (ix+MENUENTRY_T.text_addr+0) ; HL = menuentry_t.textaddr
282+  0C2D DD 66 01         ld h, (ix+MENUENTRY_T.text_addr+1) ; ...
283+  0C30 7C               ld a, h              ; if (HL == 0) - exit
284+  0C31 B5               or l                 ; ...
285+  0C32 C8               ret z                ; ...
286+  0C33 D5               push de
287+  0C34 C5               push bc
288+  0C35 DD E5            push ix
289+  0C37 CD 98 0B         call print_string    ; print menu item text
290+  0C3A DD E1            pop ix
291+  0C3C C1               pop bc
292+  0C3D D1               pop de
293+  0C3E 3B               dec sp               ; DE will be restored in .skip_val
294+  0C3F 3B               dec sp               ; ...
295+  0C40              .print_val:
296+  0C40 DD 6E 02         ld l, (ix+MENUENTRY_T.value_cb_addr+0) ; HL = menuentry_t.value_cb_addr
297+  0C43 DD 66 03         ld h, (ix+MENUENTRY_T.value_cb_addr+1) ; ...
298+  0C46 7C               ld a, h              ; if (HL == 0) - skip value print
299+  0C47 B5               or l                 ; ...
300+  0C48 28 10            jr z, .skip_val      ; ...
301+  0C4A DD E5            push ix
302+  0C4C C5               push bc
303+  0C4D CD 67 0C         call .value_cb       ; HL = value text addr. AF, BC, IX may be changed
304+  0C50 C1               pop bc
305+  0C51 3B               dec sp
306+  0C52 3B               dec sp
307+  0C53 4B               ld c, e               ; column = column_to_print_value
308+  0C54 CD A7 0B         call print_string_rev ; print value text
309+  0C57 C1               pop bc
310+  0C58 DD E1            pop ix
311+  0C5A              .skip_val:
312+  0C5A 78               ld a, b              ; row += 8
313+  0C5B C6 08            add a, 8             ; ...
314+  0C5D 47               ld b, a              ; ...
315+  0C5E 11 08 00         ld de, MENUENTRY_T   ; IX = IX + sizeof(menuentry_t)
316+  0C61 DD 19            add ix, de           ; ...
317+  0C63 D1               pop de               ; restore E - columns
318+  0C64 18 C4            jr .line_loop
319+  0C66              .return:
320+  0C66 C9               ret
321+  0C67
322+  0C67              .value_cb:
323+  0C67 E9               jp (hl)
324+  0C68
325+  0C68
326+  0C68              ; IN  -  B - row (0..24)
327+  0C68              ; IN  -  C - start column (0..31)
328+  0C68              ; IN  -  D - attribute byte to use
329+  0C68              ; IN  -  E - columns
330+  0C68              ; OUT - AF - garbage
331+  0C68              ; OUT -  B - garbage
332+  0C68              ; OUT -  E - garbage
333+  0C68              ; OUT - HL - garbage
334+  0C68              draw_attribute_line:
335+  0C68 CD 5B 0B         call coords_to_attribute_address ; HL = attribute address
336+  0C6B              .loop:
337+  0C6B 7B               ld a, e                      ; if (columns == 0) - exit
338+  0C6C B7               or a                         ; ...
339+  0C6D C8               ret z                        ; ...
340+  0C6E 72               ld (hl), d                   ; write attribute
341+  0C6F 23               inc hl                       ; column++
342+  0C70 1D               dec e                        ; columns--
343+  0C71 18 F8            jr .loop
344+  0C73 C9               ret
345+  0C74
346+  0C74
347+  0C74              ; IN  -  B - start row (0..191)
348+  0C74              ; IN  -  C - start column (0..31)
349+  0C74              ; IN  -  E - color cycle (0..4)
350+  0C74              ; OUT - AF - garbage
351+  0C74              ; OUT - BC - garbage
352+  0C74              ; OUT - DE - garbage
353+  0C74              ; OUT - HL - garbage
354+  0C74              ; OUT - IX - garbage
355+  0C74              draw_logo:
356+  0C74 CD 56 0B         call coords_to_attribute_address_pixelrow ; HL = attribute address
357+  0C77 DD 21 C0 0C      ld ix, logo_colors                        ; IX = logo_colors[color_cycle]
358+  0C7B 16 00            ld d, 0                                   ; ...
359+  0C7D DD 19            add ix, de                                ; ...
360+  0C7F              .set_colors:
361+  0C7F DD 7E 00         ld a, (ix+0)
362+  0C82 E6 C7            and #c7
363+  0C84 77               ld (hl), a
364+  0C85 23               inc hl
365+  0C86 DD 7E 01         ld a, (ix+1)
366+  0C89 77               ld (hl), a
367+  0C8A 23               inc hl
368+  0C8B DD 7E 02         ld a, (ix+2)
369+  0C8E 77               ld (hl), a
370+  0C8F 23               inc hl
371+  0C90 DD 7E 03         ld a, (ix+3)
372+  0C93 77               ld (hl), a
373+  0C94 23               inc hl
374+  0C95 DD 7E 04         ld a, (ix+4)
375+  0C98 E6 F8            and #f8
376+  0C9A 77               ld (hl), a
377+  0C9B 23               inc hl
378+  0C9C              .set_pixels:
379+  0C9C DD 21 B8 0C      ld ix, logo
380+  0CA0 1E 08            ld e, 8                          ; rows
381+  0CA2              .set_pixels_loop_row:
382+  0CA2 16 05            ld d, 5                          ; columns
383+  0CA4 D5               push de
384+  0CA5 CD C5 09         call coords_to_pixel_address     ; HL = pixel address
385+  0CA8 D1               pop de
386+  0CA9 04               inc b                            ; row++
387+  0CAA DD 7E 00         ld a, (ix)                       ; A = logo_pixel_data[row]
388+  0CAD DD 23            inc ix
389+  0CAF              .set_pixels_loop_column:
390+  0CAF 77               ld (hl), a                       ; update screen
391+  0CB0 23               inc hl
392+  0CB1 15               dec d                            ; columns--
393+  0CB2 20 FB            jr nz, .set_pixels_loop_column
394+  0CB4 1D               dec e                            ; rows--
395+  0CB5 20 EB            jr nz, .set_pixels_loop_row
396+  0CB7 C9               ret
397+  0CB8
398+  0CB8 00 01 03 07  logo: DB #00, #01, #03, #07, #0F, #1F, #3F, #7F
398+  0CBC 0F 1F 3F 7F
399+  0CC0 5A 56 74 65  logo_colors: DB #5A, #56, #74, #65, #6B,  #5A, #56, #74, #65
399+  0CC4 6B 5A 56 74
399+  0CC8 65
400+  0CC9
# file closed: draw.asm
710   0CC9                  include input.asm
# file opened: input.asm
  1+  0CC9              ; OUT -  A - 0 - no key, 32 - exit, 16 - action, 8 - up, 4 - down, 2 - left, 1 - right
  2+  0CC9              input_key_get:
  3+  0CC9 3A 29 C0         ld a, (var_input_key)
  4+  0CCC C9               ret
  5+  0CCD
  6+  0CCD
  7+  0CCD              ; OUT -  B - {0, action, up, down, left, right}
  8+  0CCD              ; OUT - AF - garbage
  9+  0CCD              ; OUT -  C - garbage
 10+  0CCD              input_read:
 11+  0CCD 06 00            ld b, 0
 12+  0CCF              .kempston:
 13+  0CCF 3E FF            ld a, #ff     ; read kempston
 14+  0CD1 DB 1F            in a, (#1f)   ; ...
 15+  0CD3 CB 7F            bit 7, a      ; detect presence by 7th bit
 16+  0CD5 20 03            jr nz, .enter ; ...
 17+  0CD7 E6 3F            and #3f       ; mask useless bits
 18+  0CD9 47               ld b, a       ; ...
 19+  0CDA              .enter:
 20+  0CDA 3E BF            ld a, #bf     ; read keys
 21+  0CDC DB FE            in a, (#fe)   ; ...
 22+  0CDE CB 47            bit 0, a      ; handle Enter (ACTION) key
 23+  0CE0 20 03            jr nz, .qwert ; ...
 24+  0CE2 CB E0            set 4, b      ; ...
 25+  0CE4 C9               ret
 26+  0CE5              .qwert:
 27+  0CE5 3E FB            ld a, #fb     ; read keys
 28+  0CE7 DB FE            in a, (#fe)   ; ...
 29+  0CE9 CB 47            bit 0, a      ; handle Q (UP) key
 30+  0CEB 20 03            jr nz, .asdfg ; ...
 31+  0CED CB D8            set 3, b      ; ...
 32+  0CEF C9               ret
 33+  0CF0              .asdfg:
 34+  0CF0 3E FD            ld a, #fd     ; read keys
 35+  0CF2 DB FE            in a, (#fe)   ; ...
 36+  0CF4 CB 47            bit 0, a      ; handle A (DOWN) key
 37+  0CF6 20 03            jr nz, .poiuy ; ...
 38+  0CF8 CB D0            set 2, b      ; ...
 39+  0CFA C9               ret
 40+  0CFB              .poiuy:
 41+  0CFB 3E DF            ld a, #df     ; read keys
 42+  0CFD DB FE            in a, (#fe)   ; ...
 43+  0CFF CB 47            bit 0, a      ; handle P (RIGHT) key
 44+  0D01 20 03            jr nz, .poiuy1 ; ...
 45+  0D03 CB C0            set 0, b      ; ...
 46+  0D05 C9               ret
 47+  0D06              .poiuy1:
 48+  0D06 CB 4F            bit 1, a      ; handle O (LEFT) key
 49+  0D08 20 03            jr nz, .cszxcv ; ...
 50+  0D0A CB C8            set 1, b      ; ...
 51+  0D0C C9               ret
 52+  0D0D              .cszxcv:
 53+  0D0D 3E FE            ld a, #fe     ; read keys
 54+  0D0F DB FE            in a, (#fe)   ; ...
 55+  0D11 CB 47            bit 0, a      ; handle CS key. if pressed - assume cursor key. else - assume sinclair joystick
 56+  0D13 28 3D            jr z, .space_break ; ...
 57+  0D15              .space:
 58+  0D15 3E 7F            ld a, #7f     ; read keys
 59+  0D17 DB FE            in a, (#fe)   ; ...
 60+  0D19 CB 47            bit 0, a      ; handle Space (ACTION) key
 61+  0D1B 20 03            jr nz, .sinclair_09876 ; ...
 62+  0D1D CB E0            set 4, b      ; ...
 63+  0D1F C9               ret
 64+  0D20              .sinclair_09876:
 65+  0D20 3E EF            ld a, #ef     ; read keys
 66+  0D22 DB FE            in a, (#fe)   ; ...
 67+  0D24 CB 47            bit 0, a      ; handle 0 (ACTION) key
 68+  0D26 20 03            jr nz, .sinclair_09876_9 ; ...
 69+  0D28 CB E0            set 4, b     ; ...
 70+  0D2A C9               ret
 71+  0D2B              .sinclair_09876_9:
 72+  0D2B CB 4F            bit 1, a      ; handle 9 (UP) key
 73+  0D2D 20 03            jr nz, .sinclair_09876_8 ; ...
 74+  0D2F CB D8            set 3, b      ; ...
 75+  0D31 C9               ret
 76+  0D32              .sinclair_09876_8:
 77+  0D32 CB 57            bit 2, a      ; handle 8 (DOWN) key
 78+  0D34 20 03            jr nz, .sinclair_09876_7 ; ...
 79+  0D36 CB D0            set 2, b      ; ...
 80+  0D38 C9               ret
 81+  0D39              .sinclair_09876_7:
 82+  0D39 CB 5F            bit 3, a      ; handle 7 (RIGHT) key
 83+  0D3B 20 03            jr nz, .sinclair_09876_6 ; ...
 84+  0D3D CB C0            set 0, b      ; ...
 85+  0D3F C9               ret
 86+  0D40              .sinclair_09876_6:
 87+  0D40 CB 67            bit 4, a      ; handle 6 (LEFT) key
 88+  0D42 20 03            jr nz, .sinclair_ssmnb ; ...
 89+  0D44 CB C8            set 1, b      ; ...
 90+  0D46 C9               ret
 91+  0D47              .sinclair_ssmnb:
 92+  0D47 3E 7F            ld a, #7f     ; read keys
 93+  0D49 DB FE            in a, (#fe)   ; ...
 94+  0D4B CB 57            bit 2, a      ; handle M (EXIT) key (in Sinclair mode sega C button is mapped to M)
 95+  0D4D 20 32            jr nz, .return ; ...
 96+  0D4F CB E8            set 5, b      ; ...
 97+  0D51 C9               ret
 98+  0D52              .space_break:
 99+  0D52 3E 7F            ld a, #7f     ; read keys
100+  0D54 DB FE            in a, (#fe)   ; ...
101+  0D56 CB 47            bit 0, a      ; handle Space (EXIT) key
102+  0D58 20 03            jr nz, .cursor_09876_7 ; ...
103+  0D5A CB E8            set 5, b      ; ...
104+  0D5C C9               ret
105+  0D5D              .cursor_09876_7:
106+  0D5D 3E EF            ld a, #ef     ; read keys
107+  0D5F DB FE            in a, (#fe)   ; ...
108+  0D61 CB 5F            bit 3, a      ; handle 7 (UP) key
109+  0D63 20 03            jr nz, .cursor_09876_6 ; ...
110+  0D65 CB D8            set 3, b      ; ...
111+  0D67 C9               ret
112+  0D68              .cursor_09876_6:
113+  0D68 CB 67            bit 4, a      ; handle 6 (DOWN) key
114+  0D6A 20 03            jr nz, .cursor_09876_8 ; ...
115+  0D6C CB D0            set 2, b      ; ...
116+  0D6E C9               ret
117+  0D6F              .cursor_09876_8:
118+  0D6F CB 57            bit 2, a      ; handle 8 (RIGHT) key
119+  0D71 20 03            jr nz, .cursor_12345_5 ; ...
120+  0D73 CB C0            set 0, b      ; ...
121+  0D75 C9               ret
122+  0D76              .cursor_12345_5:
123+  0D76 3E F7            ld a, #f7     ; read keys
124+  0D78 DB FE            in a, (#fe)   ; ...
125+  0D7A CB 67            bit 4, a      ; handle 5 (LEFT) key
126+  0D7C 20 03            jr nz, .return ; ...
127+  0D7E CB C8            set 1, b      ; ...
128+  0D80 C9               ret
129+  0D81              .return:
130+  0D81 C9               ret
131+  0D82
132+  0D82
133+  0D82              ; IN  -  A - current pressed key
134+  0D82              ; OUT - AF - garbage
135+  0D82              ; OUT - BC - garbage
136+  0D82              input_beep:
137+  0D82 B7               or a
138+  0D83 C8               ret z
139+  0D84                  IFDEF TEST_BUILD
140+  0D84 ~                    ld a, #10            ; blink border
141+  0D84 ~                    out (#fe), a         ; ...
142+  0D84                  ENDIF
143+  0D84 AF               xor a                    ; blink border
144+  0D85 01 FF 01         ld bc, #01ff             ; ...
145+  0D88 ED 79            out (c), a               ; ...
146+  0D8A 06 FF            ld b, INPUT_BEEP_DELAY
147+  0D8C              .loop:
148+  0D8C 10 FE            djnz .loop
149+  0D8E 3E 01            ld a, 1                  ; blink border back
150+  0D90 01 FF 01         ld bc, #01ff             ; ...
151+  0D93 ED 79            out (c), a               ; ...
152+  0D95 C9               ret
153+  0D96
154+  0D96
155+  0D96              ; OUT -  B - current pressed key mask
156+  0D96              ; OUT - AF - garbage
157+  0D96              ; OUT -  C - garbage
158+  0D96              input_process:
159+  0D96 CD CD 0C         call input_read              ; read keys
160+  0D99 3A 2A C0         ld a, (var_input_key_last)   ;
161+  0D9C B8               cp b                         ; if (current_pressed_key == last_pressed_key) {input_key = current_pressed_key; timer = X}
162+  0D9D 28 10            jr z, .repeat                ; ...
163+  0D9F 78               ld a, b                      ;
164+  0DA0 32 29 C0         ld (var_input_key), a        ; input_key = current_pressed_key
165+  0DA3 32 2A C0         ld (var_input_key_last), a   ; last_pressed_ley = current_pressed_key
166+  0DA6 CD 82 0D         call input_beep
167+  0DA9 3E 0B            ld a, INPUT_REPEAT_FIRST     ; timer = INPUT_REPEAT_FIRST
168+  0DAB 32 2B C0         ld (var_input_key_hold_timer), a ; ...
169+  0DAE C9               ret
170+  0DAF              .repeat:
171+  0DAF 3A 2B C0         ld a, (var_input_key_hold_timer)  ; ...
172+  0DB2 3D               dec a                             ; timer--
173+  0DB3 20 0F            jr nz, .repeat_wait               ; if (timer == 0) input_key = current_pressed_key
174+  0DB5 3A 2A C0         ld a, (var_input_key_last)        ; ...
175+  0DB8 32 29 C0         ld (var_input_key), a             ; ...
176+  0DBB CD 82 0D         call input_beep
177+  0DBE 3E 02            ld a, INPUT_REPEAT                ; timer = INPUT_REPEAT
178+  0DC0 32 2B C0         ld (var_input_key_hold_timer), a  ; ...
179+  0DC3 C9               ret
180+  0DC4              .repeat_wait:
181+  0DC4 32 2B C0         ld (var_input_key_hold_timer), a  ; timer--
182+  0DC7 AF               xor a                             ; input_key = none
183+  0DC8 32 29 C0         ld (var_input_key), a             ; ...
184+  0DCB C9               ret
185+  0DCC
186+  0DCC
187+  0DCC              input_init:
188+  0DCC AF               xor a
189+  0DCD 32 29 C0         ld (var_input_key), a
190+  0DD0 32 2A C0         ld (var_input_key_last), a
191+  0DD3 32 2B C0         ld (var_input_key_hold_timer), a
192+  0DD6 C9               ret
193+  0DD7
# file closed: input.asm
711   0DD7                  include pause.asm
# file opened: pause.asm
  1+  0DD7              pause_init:
  2+  0DD7 AF               xor a
  3+  0DD8 32 2C C0         ld (var_pause_is_released), a
  4+  0DDB 16 00            ld d, PAUSE_BODY_ATTR
  5+  0DDD 0E 0C            ld c, PAUSE_X
  6+  0DDF 06 0A            ld b, PAUSE_Y
  7+  0DE1 1E 07            ld e, PAUSE_WIDTH
  8+  0DE3 CD 68 0C         call draw_attribute_line
  9+  0DE6 06 0C            ld b, PAUSE_Y+2
 10+  0DE8 1E 07            ld e, PAUSE_WIDTH
 11+  0DEA CD 68 0C         call draw_attribute_line
 12+  0DED 16 C7            ld d, PAUSE_TEXT_ATTR
 13+  0DEF 06 0B            ld b, PAUSE_Y+1
 14+  0DF1 1E 07            ld e, PAUSE_WIDTH
 15+  0DF3 CD 68 0C         call draw_attribute_line
 16+  0DF6 06 58            ld b, (PAUSE_Y+1)<<3
 17+  0DF8 21 25 17         ld hl, str_pause
 18+  0DFB CD 98 0B         call print_string
 19+  0DFE C9               ret
 20+  0DFF
 21+  0DFF              pause_process:
 22+  0DFF AF               xor a                       ; read pause key state in bit 1 of #00FF port
 23+  0E00 DB FF            in a, (#ff)                 ; ...
 24+  0E02 CB 4F            bit 1, a                    ; check key is hold
 25+  0E04 20 06            jr nz, .is_hold             ; yes?
 26+  0E06 3E 01            ld a, 1
 27+  0E08 32 2C C0         ld (var_pause_is_released), a
 28+  0E0B C9               ret
 29+  0E0C              .is_hold:
 30+  0E0C 3A 2C C0         ld a, (var_pause_is_released) ; if key wasnt released - do nothing
 31+  0E0F B7               or a                          ; ...
 32+  0E10 C8               ret z                         ; ...
 33+  0E11 3E 01            ld a, 1                       ; otherwise - var_exit_flag = 1
 34+  0E13 32 27 C0         ld (var_exit_flag), a         ; ...
 35+  0E16 C9               ret
 36+  0E17
# file closed: pause.asm
712   0E17                  include menu.asm
# file opened: menu.asm
  1+  0E17              ; IN  - HL - pointer to menu
  2+  0E17              menu_init:
  3+  0E17 01 09 00         ld bc, MENU_T            ; copy menu descriptor from (hl) to (var_menu)
  4+  0E1A 11 31 C0         ld de, var_menu          ; ...
  5+  0E1D ED B0            ldir                     ; ...
  6+  0E1F
  7+  0E1F AF               xor a
  8+  0E20 32 3A C0         ld (var_menu_current_item), a
  9+  0E23 32 3B C0         ld (var_menu_animate_cnt), a
 10+  0E26
 11+  0E26 DD 21 31 C0      ld ix, var_menu
 12+  0E2A DD 46 04         ld b, (ix+MENU_T.y_row)
 13+  0E2D DD 4E 07         ld c, (ix+MENU_T.x)
 14+  0E30 DD 56 03         ld d, (ix+MENU_T.height)
 15+  0E33 DD 5E 06         ld e, (ix+MENU_T.width)
 16+  0E36 CD B6 0B         call draw_box
 17+  0E39
 18+  0E39 DD 21 31 C0      ld ix, var_menu
 19+  0E3D 21 19 17         ld hl, str_sizif
 20+  0E40 DD 46 05         ld b, (ix+MENU_T.y_pixel)
 21+  0E43 DD 4E 07         ld c, (ix+MENU_T.x)
 22+  0E46 CD 98 0B         call print_string
 23+  0E49
 24+  0E49 DD 21 31 C0      ld ix, var_menu
 25+  0E4D DD 46 05         ld b, (ix+MENU_T.y_pixel)
 26+  0E50 DD 4E 08         ld c, (ix+MENU_T.x_logo)
 27+  0E53 1E 00            ld e, 0
 28+  0E55 CD 74 0C         call draw_logo
 29+  0E58
 30+  0E58 CD 15 0F         call menu_draw_menu
 31+  0E5B
 32+  0E5B AF               xor a
 33+  0E5C 16 68            ld d, MENU_SELECT_ATTR
 34+  0E5E CD FF 0E         call menu_draw_selected_item
 35+  0E61 C9               ret
 36+  0E62
 37+  0E62
 38+  0E62              menu_process:
 39+  0E62                  ;call menu_animate_logo
 40+  0E62                  ;call menu_handle_updown
 41+  0E62                  ;call menu_handle_action_left_right
 42+  0E62
 43+  0E62
 44+  0E62              menu_animate_logo:
 45+  0E62 3A 3B C0         ld a, (var_menu_animate_cnt)  ;
 46+  0E65 3C               inc a                         ; cnt++ (only cnt[7:5] used as color offset)
 47+  0E66 FE A0            cp #a0                        ; if (cnt[7:5] == 5) cnt = 0 - because valid offsets 0..4
 48+  0E68 20 01            jr nz, .animate               ; ...
 49+  0E6A AF               xor a                         ; ...
 50+  0E6B              .animate:                         ;
 51+  0E6B 32 3B C0         ld (var_menu_animate_cnt), a  ;
 52+  0E6E A7 E6 1F         and a, #1F                    ; if (cnt[7:5] was not changed) - exit
 53+  0E71 20 1F            jr nz, .return                ; ...
 54+  0E73 3A 3B C0         ld a, (var_menu_animate_cnt)  ;
 55+  0E76 CB 3F            srl a                         ; cnt[7:5] -> cnt[2:0]
 56+  0E78 CB 3F            srl a                         ; ...
 57+  0E7A CB 3F            srl a                         ; ...
 58+  0E7C CB 3F            srl a                         ; ...
 59+  0E7E CB 3F            srl a                         ; ...
 60+  0E80 5F               ld e, a                       ; reverse animation direction (from left to right)
 61+  0E81 3E 04            ld a, 4                       ; ...
 62+  0E83 93               sub e                         ; ...
 63+  0E84 5F               ld e, a                       ; ...
 64+  0E85 DD 21 31 C0      ld ix, var_menu               ;
 65+  0E89 DD 46 05         ld b, (ix+MENU_T.y_pixel)     ; draw logo
 66+  0E8C DD 4E 08         ld c, (ix+MENU_T.x_logo)      ; ...
 67+  0E8F CD 74 0C         call draw_logo                ; ...
 68+  0E92              .return:
 69+  0E92                  ; ret                         ; pass to menu_handle_updown
 70+  0E92
 71+  0E92
 72+  0E92              ; OUT -  A - pressed key
 73+  0E92              ; OUT - BC - garbage
 74+  0E92              ; OUT - DE - garbage
 75+  0E92              ; OUT - HL - garbage
 76+  0E92              ; OUT - IX - garbage
 77+  0E92              menu_handle_updown:
 78+  0E92 DD 21 31 C0      ld ix, var_menu
 79+  0E96 CD C9 0C         call input_key_get              ; A = current_pressed_key
 80+  0E99              .down:                              ;
 81+  0E99 CB 57            bit 2, a                        ; down?
 82+  0E9B 28 13            jr z, .up                       ; ...
 83+  0E9D 3A 3A C0         ld a, (var_menu_current_item)   ;
 84+  0EA0 16 78            ld d, MENU_BODY_ATTR            ; fill selected item with background color
 85+  0EA2 CD FF 0E         call menu_draw_selected_item    ; ...
 86+  0EA5 3C               inc a                           ; current_item++
 87+  0EA6 BF DD BE 02      cp a, (ix+MENU_T.items)         ; if (current_item == max) current_item = 0
 88+  0EAA 20 17            jr nz, .return_save             ; ...
 89+  0EAC 3E 00            ld a, 0                         ; ...
 90+  0EAE 18 13            jr .return_save                 ;
 91+  0EB0              .up:                                ;
 92+  0EB0 CB 5F            bit 3, a                        ; up?
 93+  0EB2 28 18            jr z, .return                   ; ...
 94+  0EB4 3A 3A C0         ld a, (var_menu_current_item)   ;
 95+  0EB7 16 78            ld d, MENU_BODY_ATTR            ; fill selected item with background color
 96+  0EB9 CD FF 0E         call menu_draw_selected_item    ; ...
 97+  0EBC B7               or a                            ; if (current_item == 0) current_item = max
 98+  0EBD 20 03            jr nz, .up_decrement            ; ...
 99+  0EBF DD 7E 02         ld a, (ix+MENU_T.items)
100+  0EC2              .up_decrement                       ; ...
101+  0EC2 3D               dec a                           ; current_item--
102+  0EC3              .return_save:                       ;
103+  0EC3 32 3A C0         ld (var_menu_current_item), a   ; ...
104+  0EC6 16 68            ld d, MENU_SELECT_ATTR          ; highlight selected item
105+  0EC8 CD FF 0E         call menu_draw_selected_item    ; ...
106+  0ECB AF               xor a
107+  0ECC              .return:
108+  0ECC                  ;ret                            ; pass to menu_handle_action_left_right
109+  0ECC
110+  0ECC
111+  0ECC              ; IN  -  A - pressed key
112+  0ECC              ; OUT -  D - pressed key
113+  0ECC              ; OUT - AF - garbage
114+  0ECC              ; OUT - BC - garbage
115+  0ECC              ; OUT - HL - garbage
116+  0ECC              ; OUT - IX - garbage
117+  0ECC              menu_handle_action_left_right:
118+  0ECC 57               ld d, a
119+  0ECD E6 13            and #13                         ; action/left/right?
120+  0ECF 28 2C            jr z, .return
121+  0ED1 DD 21 31 C0      ld ix, var_menu                 ; IX = &menu
122+  0ED5 DD 4E 00         ld c, (ix+MENU_T.addr+0)        ; IX = &menu_entry
123+  0ED8 DD 46 01         ld b, (ix+MENU_T.addr+1)        ; ...
124+  0EDB DD 69            ld ixl, c                       ; ...
125+  0EDD DD 60            ld ixh, b                       ; ...
126+  0EDF 3A 3A C0         ld a, (var_menu_current_item)   ; A = selected item index
127+  0EE2 CB 27            sla a                           ; A*8 (one menu entry - 8 bytes)
128+  0EE4 CB 27            sla a                           ; ...
129+  0EE6 CB 27            sla a                           ; ...
130+  0EE8 4F               ld c, a                         ; IX = &menu_entry[index].callback
131+  0EE9 06 00            ld b, 0                         ; ...
132+  0EEB DD 09            add ix, bc                      ; ...
133+  0EED DD 6E 04         ld l, (ix+MENUENTRY_T.callback+0) ; HL = menu_entry[index].callback
134+  0EF0 DD 66 05         ld h, (ix+MENUENTRY_T.callback+1) ; ...
135+  0EF3 7C               ld a, h                         ; if (HL == 0) - exit
136+  0EF4 B5               or l                            ; ...
137+  0EF5 28 06            jr z, .return                   ; ...
138+  0EF7 CD FE 0E         call .callback                  ; call menu[index].callback(), D is pressed key
139+  0EFA CD 15 0F         call menu_draw_menu             ; update menu if something changed
140+  0EFD              .return:
141+  0EFD C9               ret
142+  0EFE
143+  0EFE              .callback:
144+  0EFE E9               jp (hl)                         ; AF, BC, HL, IX may be changed
145+  0EFF
146+  0EFF
147+  0EFF              ; IN  -  A - selected menu item number
148+  0EFF              ; IN  -  D - attribute
149+  0EFF              ; OUT - BC - garbage
150+  0EFF              ; OUT -  E - garbage
151+  0EFF              ; OUT - HL - garbage
152+  0EFF              ; OUT - IX - garbage
153+  0EFF              menu_draw_selected_item:
154+  0EFF F5               push af
155+  0F00 DD 21 31 C0      ld ix, var_menu
156+  0F04 DD 46 04         ld b, (ix+MENU_T.y_row)
157+  0F07 04               inc b
158+  0F08 80               add b
159+  0F09 47               ld b, a
160+  0F0A DD 4E 07         ld c, (ix+MENU_T.x)
161+  0F0D DD 5E 06         ld e, (ix+MENU_T.width)
162+  0F10 CD 68 0C         call draw_attribute_line
163+  0F13 F1               pop af
164+  0F14 C9               ret
165+  0F15
166+  0F15
167+  0F15              menu_draw_menu:
168+  0F15 DD 21 31 C0      ld ix, var_menu
169+  0F19 DD 7E 05         ld a, (ix+MENU_T.y_pixel)
170+  0F1C C6 08            add a, 8
171+  0F1E 47               ld b, a
172+  0F1F DD 4E 07         ld c, (ix+MENU_T.x)
173+  0F22 0C               inc c
174+  0F23 DD 5E 06         ld e, (ix+MENU_T.width)
175+  0F26 DD 6E 00         ld l, (ix+MENU_T.addr+0)
176+  0F29 DD 66 01         ld h, (ix+MENU_T.addr+1)
177+  0F2C CD 22 0C         call draw_menu
178+  0F2F C9               ret
179+  0F30
180+  0F30
181+  0F30              ;var_menu_current_item: DB 0
182+  0F30              ;var_menu_animate_cnt: DB 0
183+  0F30
# file closed: menu.asm
713   0F30                  include menu_structure.asm
# file opened: menu_structure.asm
  1+  0F30                  STRUCT MENU_T
  2+  0F30 ~            addr DW
  3+  0F30 ~            items DB
  4+  0F30 ~            height DB
  5+  0F30 ~            y_row DB
  6+  0F30 ~            y_pixel DB
  7+  0F30 ~            width DB
  8+  0F30 ~            x DB
  9+  0F30 ~            x_logo DB
 10+  0F30                  ENDS
 11+  0F30
 12+  0F30                  STRUCT MENUENTRY_T
 13+  0F30 ~            text_addr DW
 14+  0F30 ~            value_cb_addr DW
 15+  0F30 ~            callback DW
 16+  0F30 ~            reserved DW
 17+  0F30                  ENDS
 18+  0F30
 19+  0F30                  MACRO MENU_DEF width
 20+  0F30 ~                    MENU_T {
 21+  0F30 ~                        ($+MENU_T)
 22+  0F30 ~                        (((.end-$)/MENUENTRY_T-1))
 23+  0F30 ~                        (((.end-$)/MENUENTRY_T-1)+2)
 24+  0F30 ~                        ( (24-(((.end-$)/MENUENTRY_T-1)+2))/2)
 25+  0F30 ~                        (((24-(((.end-$)/MENUENTRY_T-1)+2))/2)*8)
 26+  0F30 ~                        (width)
 27+  0F30 ~                        ( (32-width)/2)
 28+  0F30 ~                        (((32-width)/2)+width-6)
 29+  0F30 ~                    }
 30+  0F30                  ENDM
 31+  0F30
 32+  0F30              menudefault: MENU_DEF 20
 32+  0F30             >        MENU_T {
 32+  0F30 39 0F       >            ($+MENU_T)
 32+  0F32 0B          >            (((.end-$)/MENUENTRY_T-1))
 32+  0F33 0D          >            (((.end-$)/MENUENTRY_T-1)+2)
 32+  0F34 05          >            ( (24-(((.end-$)/MENUENTRY_T-1)+2))/2)
 32+  0F35 28          >            (((24-(((.end-$)/MENUENTRY_T-1)+2))/2)*8)
 32+  0F36 14          >            (20)
 32+  0F37 06          >            ( (32-20)/2)
 32+  0F38 14          >            (((32-20)/2)+20-6)
 32+  0F39             >        }
 33+  0F39 92 17 8E 10      MENUENTRY_T str_cpu         menu_clock_value_cb       menu_clock_cb
 33+  0F3D A7 11 00 00
 34+  0F41 66 17 7C 10      MENUENTRY_T str_machine     menu_machine_value_cb     menu_machine_cb
 34+  0F45 96 11 00 00
 35+  0F49 BE 17 A2 10      MENUENTRY_T str_panning     menu_panning_value_cb     menu_panning_cb
 35+  0F4D B8 11 00 00
 36+  0F51 D5 17 CA 10      MENUENTRY_T str_joystick    menu_joystick_value_cb    menu_joystick_cb
 36+  0F55 DC 11 00 00
 37+  0F59                  IFNDEF SIZIFXXS
 38+  0F59 F0 17 D8 10      MENUENTRY_T str_rom48       menu_rom48_value_cb       menu_rom48_cb
 38+  0F5D ED 11 00 00
 39+  0F61                  ENDIF
 40+  0F61 10 18 E8 10      MENUENTRY_T str_sd          menu_sd_value_cb          menu_sd_cb
 40+  0F65 FE 11 00 00
 41+  0F69 26 18 F8 10      MENUENTRY_T str_ulaplus     menu_ulaplus_value_cb     menu_ulaplus_cb
 41+  0F6D 0F 12 00 00
 42+  0F71 2B 18 06 11      MENUENTRY_T str_dac         menu_dac_value_cb         menu_dac_cb
 42+  0F75 20 12 00 00
 43+  0F79 4A 18 18 11      MENUENTRY_T str_spk         menu_spk_value_cb         menu_spk_cb
 43+  0F7D 31 12 00 00
 44+  0F81 6B 18 00 00      MENUENTRY_T str_menuadv     0                         menu_menuadv_cb
 44+  0F85 8B 12 00 00
 45+  0F89 2D 17 50 11      MENUENTRY_T str_exit        menu_exit_value_cb        menu_exit_cb
 45+  0F8D 75 12 00 00
 46+  0F91 00 00 00 00      MENUENTRY_T 0
 46+  0F95 00 00 00 00
 47+  0F99              .end:
 48+  0F99
 49+  0F99              menuext: MENU_DEF 20
 49+  0F99             >        MENU_T {
 49+  0F99 A2 0F       >            ($+MENU_T)
 49+  0F9B 0E          >            (((.end-$)/MENUENTRY_T-1))
 49+  0F9C 10          >            (((.end-$)/MENUENTRY_T-1)+2)
 49+  0F9D 04          >            ( (24-(((.end-$)/MENUENTRY_T-1)+2))/2)
 49+  0F9E 20          >            (((24-(((.end-$)/MENUENTRY_T-1)+2))/2)*8)
 49+  0F9F 14          >            (20)
 49+  0FA0 06          >            ( (32-20)/2)
 49+  0FA1 14          >            (((32-20)/2)+20-6)
 49+  0FA2             >        }
 50+  0FA2 92 17 8E 10      MENUENTRY_T str_cpu         menu_clock_value_cb       menu_clock_cb
 50+  0FA6 A7 11 00 00
 51+  0FAA 66 17 7C 10      MENUENTRY_T str_machine     menu_machine_value_cb     menu_machine_cb
 51+  0FAE 96 11 00 00
 52+  0FB2 BE 17 A2 10      MENUENTRY_T str_panning     menu_panning_value_cb     menu_panning_cb
 52+  0FB6 B8 11 00 00
 53+  0FBA D5 17 CA 10      MENUENTRY_T str_joystick    menu_joystick_value_cb    menu_joystick_cb
 53+  0FBE DC 11 00 00
 54+  0FC2 F0 17 D8 10      MENUENTRY_T str_rom48       menu_rom48_value_cb       menu_rom48_cb
 54+  0FC6 ED 11 00 00
 55+  0FCA 10 18 E8 10      MENUENTRY_T str_sd          menu_sd_value_cb          menu_sd_cb
 55+  0FCE FE 11 00 00
 56+  0FD2 26 18 F8 10      MENUENTRY_T str_ulaplus     menu_ulaplus_value_cb     menu_ulaplus_cb
 56+  0FD6 0F 12 00 00
 57+  0FDA 2B 18 06 11      MENUENTRY_T str_dac         menu_dac_value_cb         menu_dac_cb
 57+  0FDE 20 12 00 00
 58+  0FE2 56 18 26 11      MENUENTRY_T str_tsfm        menu_tsfm_value_cb        menu_tsfm_cb
 58+  0FE6 42 12 00 00
 59+  0FEA 60 18 34 11      MENUENTRY_T str_saa         menu_saa_value_cb         menu_saa_cb
 59+  0FEE 53 12 00 00
 60+  0FF2 68 18 42 11      MENUENTRY_T str_gs          menu_gs_value_cb          menu_gs_cb
 60+  0FF6 64 12 00 00
 61+  0FFA 4A 18 18 11       MENUENTRY_T str_spk         menu_spk_value_cb         menu_spk_cb
 61+  0FFE 31 12 00 00
 62+  1002 6B 18 00 00      MENUENTRY_T str_menuadv     0                         menu_menuadv_cb
 62+  1006 8B 12 00 00
 63+  100A 2D 17 50 11      MENUENTRY_T str_exit        menu_exit_value_cb        menu_exit_cb
 63+  100E 75 12 00 00
 64+  1012 00 00 00 00      MENUENTRY_T 0
 64+  1016 00 00 00 00
 65+  101A              .end:
 66+  101A
 67+  101A              menuadv: MENU_DEF 22
 67+  101A             >        MENU_T {
 67+  101A 23 10       >            ($+MENU_T)
 67+  101C 04          >            (((.end-$)/MENUENTRY_T-1))
 67+  101D 06          >            (((.end-$)/MENUENTRY_T-1)+2)
 67+  101E 09          >            ( (24-(((.end-$)/MENUENTRY_T-1)+2))/2)
 67+  101F 48          >            (((24-(((.end-$)/MENUENTRY_T-1)+2))/2)*8)
 67+  1020 16          >            (22)
 67+  1021 05          >            ( (32-22)/2)
 67+  1022 15          >            (((32-22)/2)+22-6)
 67+  1023             >        }
 68+  1023 77 18 5E 11      MENUENTRY_T str_sd_indication menu_sdind_value_cb     menu_sdind_cb
 68+  1027 92 12 00 00
 69+  102B 85 18 6C 11      MENUENTRY_T str_bright_boost  menu_bright_value_cb    menu_bright_cb
 69+  102F A3 12 00 00
 70+  1033 92 18 7A 11      MENUENTRY_T str_save_settings menu_cfgsave_value_cb   menu_cfgsave_cb
 70+  1037 B4 12 00 00
 71+  103B AC 18 00 00      MENUENTRY_T str_back          0                       menu_back_cb
 71+  103F DD 12 00 00
 72+  1043 00 00 00 00      MENUENTRY_T 0
 72+  1047 00 00 00 00
 73+  104B              .end:
 74+  104B
 75+  104B              menuboot: MENU_DEF 16
 75+  104B             >        MENU_T {
 75+  104B 54 10       >            ($+MENU_T)
 75+  104D 04          >            (((.end-$)/MENUENTRY_T-1))
 75+  104E 06          >            (((.end-$)/MENUENTRY_T-1)+2)
 75+  104F 09          >            ( (24-(((.end-$)/MENUENTRY_T-1)+2))/2)
 75+  1050 48          >            (((24-(((.end-$)/MENUENTRY_T-1)+2))/2)*8)
 75+  1051 10          >            (16)
 75+  1052 08          >            ( (32-16)/2)
 75+  1053 12          >            (((32-16)/2)+16-6)
 75+  1054             >        }
 76+  1054 B7 18 00 00      MENUENTRY_T str_normal_boot   0                       menu_boot_normal_cb
 76+  1058 E6 12 00 00
 77+  105C                  IFNDEF REV_C
 78+  105C C3 18 00 00      MENUENTRY_T str_zx80          0                       menu_boot_zx80_cb
 78+  1060 F4 12 00 00
 79+  1064 C8 18 00 00      MENUENTRY_T str_zx81          0                       menu_boot_zx81_cb
 79+  1068 02 13 00 00
 80+  106C CD 18 00 00      MENUENTRY_T str_negluk        0                       menu_boot_negluk_cb
 80+  1070 10 13 00 00
 81+  1074                  ENDIF
 82+  1074 00 00 00 00      MENUENTRY_T 0
 82+  1078 00 00 00 00
 83+  107C              .end:
 84+  107C
 85+  107C
 86+  107C
 87+  107C              menu_machine_value_cb:
 88+  107C DD 21 86 10      ld ix, .values_table
 89+  1080 3A 40 C0         ld a, (cfg.machine)
 90+  1083 C3 88 11         jp menu_value_get
 91+  1086              .values_table:
 92+  1086 75 17            DW str_machine_48_end-2
 93+  1088 7E 17            DW str_machine_128_end-2
 94+  108A 87 17            DW str_machine_3e_end-2
 95+  108C 90 17            DW str_machine_pentagon_end-2
 96+  108E
 97+  108E              menu_clock_value_cb:
 98+  108E DD 21 98 10      ld ix, .values_table
 99+  1092 3A 41 C0         ld a, (cfg.clock)
100+  1095 C3 88 11         jp menu_value_get
101+  1098              .values_table:
102+  1098 A0 17            DW str_cpu_35_end-2
103+  109A A7 17            DW str_cpu_44_end-2
104+  109C AE 17            DW str_cpu_52_end-2
105+  109E B5 17            DW str_cpu_7_end-2
106+  10A0 BC 17            DW str_cpu_14_end-2
107+  10A2
108+  10A2              menu_panning_value_cb:
109+  10A2 DD 21 C4 10      ld ix, .values_table
110+  10A6 3A 3C C0         ld a, (var_ext_presence) ; if (ext_board && tsfm) - use ABC instead of ACB panning
111+  10A9 B7               or a                     ; ...
112+  10AA 28 12            jr z, .no_tsfm           ; ...
113+  10AC 3A 4D C0         ld a, (cfgext.tsfm)      ; ...
114+  10AF B7               or a                     ; ...
115+  10B0 28 0C            jr z, .no_tsfm           ; ...
116+  10B2 3A 42 C0         ld a, (cfg.panning)
117+  10B5 BF FE 02         cp a, 2                  ; if (panning == acb) panning = abc
118+  10B8 38 01            jr c, .get               ; ...
119+  10BA 3D               dec a                    ; ...
120+  10BB              .get
121+  10BB C3 88 11         jp menu_value_get
122+  10BE              .no_tsfm:
123+  10BE 3A 42 C0         ld a, (cfg.panning)
124+  10C1 C3 88 11         jp menu_value_get
125+  10C4              .values_table:
126+  10C4 D3 17            DW str_panning_mono_end-2
127+  10C6 C9 17            DW str_panning_abc_end-2
128+  10C8 CE 17            DW str_panning_acb_end-2
129+  10CA
130+  10CA              menu_joystick_value_cb:
131+  10CA DD 21 D4 10      ld ix, .values_table
132+  10CE 3A 45 C0         ld a, (cfg.joystick)
133+  10D1 C3 88 11         jp menu_value_get
134+  10D4              .values_table:
135+  10D4 E5 17            DW str_joystick_kempston_end-2
136+  10D6 EE 17            DW str_joystick_sinclair_end-2
137+  10D8
138+  10D8              menu_rom48_value_cb:
139+  10D8 DD 21 E2 10      ld ix, .values_table
140+  10DC 3A 44 C0         ld a, (cfg.rom48)
141+  10DF C3 88 11         jp menu_value_get
142+  10E2              .values_table:
143+  10E2 FE 17            DW str_rom48_default_end-2
144+  10E4 06 18            DW str_rom48_lg_end-2
145+  10E6 0E 18            DW str_rom48_opense_end-2
146+  10E8
147+  10E8              menu_sd_value_cb:
148+  10E8 DD 21 F2 10      ld ix, .values_table
149+  10EC 3A 47 C0         ld a, (cfg.sd)
150+  10EF C3 88 11         jp menu_value_get
151+  10F2              .values_table:
152+  10F2 5C 17            DW str_off_end-2
153+  10F4 1D 18            DW str_divmmc_end-2
154+  10F6 24 18            DW str_zc3e_end-2
155+  10F8
156+  10F8              menu_ulaplus_value_cb:
157+  10F8 DD 21 02 11      ld ix, .values_table
158+  10FC 3A 48 C0         ld a, (cfg.ulaplus)
159+  10FF C3 88 11         jp menu_value_get
160+  1102              .values_table:
161+  1102 5C 17            DW str_off_end-2
162+  1104 52 17            DW str_on_end-2
163+  1106
164+  1106              menu_dac_value_cb:
165+  1106 DD 21 10 11      ld ix, .values_table
166+  110A 3A 49 C0         ld a, (cfg.dac)
167+  110D C3 88 11         jp menu_value_get
168+  1110              .values_table:
169+  1110 5C 17            DW str_off_end-2
170+  1112 36 18            DW str_dac_covox_end-2
171+  1114 3F 18            DW str_dac_sd_end-2
172+  1116 48 18            DW str_dac_covoxsd_end-2
173+  1118
174+  1118              menu_spk_value_cb:
175+  1118 DD 21 22 11      ld ix, .values_table
176+  111C 3A 4A C0         ld a, (cfg.spk)
177+  111F C3 88 11         jp menu_value_get
178+  1122              .values_table:
179+  1122 5C 17            DW str_off_end-2
180+  1124 52 17            DW str_on_end-2
181+  1126
182+  1126              menu_tsfm_value_cb:
183+  1126 DD 21 30 11      ld ix, .values_table
184+  112A 3A 4D C0         ld a, (cfgext.tsfm)
185+  112D C3 88 11         jp menu_value_get
186+  1130              .values_table:
187+  1130 5C 17            DW str_off_end-2
188+  1132 52 17            DW str_on_end-2
189+  1134
190+  1134              menu_saa_value_cb:
191+  1134 DD 21 3E 11      ld ix, .values_table
192+  1138 3A 4E C0         ld a, (cfgext.saa)
193+  113B C3 88 11         jp menu_value_get
194+  113E              .values_table:
195+  113E 5C 17            DW str_off_end-2
196+  1140 52 17            DW str_on_end-2
197+  1142
198+  1142              menu_gs_value_cb:
199+  1142 DD 21 4C 11      ld ix, .values_table
200+  1146 3A 4F C0         ld a, (cfgext.gs)
201+  1149 C3 88 11         jp menu_value_get
202+  114C              .values_table:
203+  114C 5C 17            DW str_off_end-2
204+  114E 52 17            DW str_on_end-2
205+  1150
206+  1150              menu_exit_value_cb:
207+  1150 DD 21 5A 11      ld ix, .values_table
208+  1154 3A 28 C0         ld a, (var_exit_reboot)
209+  1157 C3 88 11         jp menu_value_get
210+  115A              .values_table:
211+  115A 4C 17            DW str_exit_no_reboot_end-2
212+  115C 3E 17            DW str_exit_reboot_end-2
213+  115E
214+  115E              menu_sdind_value_cb:
215+  115E DD 21 68 11      ld ix, .values_table
216+  1162 3A 4B C0         ld a, (cfg.sdind)
217+  1165 C3 88 11         jp menu_value_get
218+  1168              .values_table:
219+  1168 64 17            DW str_off_short_end-2
220+  116A 60 17            DW str_on_short_end-2
221+  116C
222+  116C              menu_bright_value_cb:
223+  116C DD 21 76 11      ld ix, .values_table
224+  1170 3A 4C C0         ld a, (cfg.bright)
225+  1173 C3 88 11         jp menu_value_get
226+  1176              .values_table:
227+  1176 64 17            DW str_off_short_end-2
228+  1178 60 17            DW str_on_short_end-2
229+  117A
230+  117A              menu_cfgsave_value_cb:
231+  117A DD 21 84 11      ld ix, .values_table
232+  117E 3A 3D C0         ld a, (var_flash_error)
233+  1181 C3 88 11         jp menu_value_get
234+  1184              .values_table:
235+  1184 AA 18            DW str_no_error_end-2
236+  1186 A4 18            DW str_error_end-2
237+  1188
238+  1188
239+  1188              menu_value_get:
240+  1188 CB 27            sla a
241+  118A 4F               ld c, a
242+  118B 06 00            ld b, 0
243+  118D DD 09            add ix, bc
244+  118F DD 6E 00         ld l, (ix+0)
245+  1192 DD 66 01         ld h, (ix+1)
246+  1195 C9               ret
247+  1196
248+  1196
249+  1196
250+  1196              menu_machine_cb:
251+  1196 3A 40 C0         ld a, (cfg.machine)
252+  1199 0E 03            ld c, 3
253+  119B CD 1E 13         call menu_handle_press
254+  119E 32 40 C0         ld (cfg.machine), a
255+  11A1 01 FF 02         ld bc, #02ff
256+  11A4 ED 79            out (c), a
257+  11A6 C9               ret
258+  11A7
259+  11A7              menu_clock_cb:
260+  11A7 3A 41 C0         ld a, (cfg.clock)
261+  11AA 0E 04            ld c, 4
262+  11AC CD 1E 13         call menu_handle_press
263+  11AF 32 41 C0         ld (cfg.clock), a
264+  11B2 01 FF 03         ld bc, #03ff
265+  11B5 ED 79            out (c), a
266+  11B7 C9               ret
267+  11B8
268+  11B8              menu_panning_cb:
269+  11B8 3A 3C C0         ld a, (var_ext_presence) ; if (ext_board && tsfm) - do not allow to set ACB panning
270+  11BB B7               or a                     ; ...
271+  11BC 28 0D            jr z, .no_tsfm           ; ...
272+  11BE 3A 4D C0         ld a, (cfgext.tsfm)      ; ...
273+  11C1 B7               or a                     ; ...
274+  11C2 28 07            jr z, .no_tsfm           ; ...
275+  11C4 3A 42 C0         ld a, (cfg.panning)      ; ...
276+  11C7 0E 01            ld c, 1                  ; ...
277+  11C9 18 05            jr .load
278+  11CB              .no_tsfm:
279+  11CB 3A 42 C0         ld a, (cfg.panning)
280+  11CE 0E 02            ld c, 2
281+  11D0              .load:
282+  11D0 CD 1E 13         call menu_handle_press
283+  11D3 32 42 C0         ld (cfg.panning), a
284+  11D6 01 FF 04         ld bc, #04ff
285+  11D9 ED 79            out (c), a
286+  11DB C9               ret
287+  11DC
288+  11DC              menu_joystick_cb:
289+  11DC 3A 45 C0         ld a, (cfg.joystick)
290+  11DF 0E 01            ld c, 1
291+  11E1 CD 1E 13         call menu_handle_press
292+  11E4 32 45 C0         ld (cfg.joystick), a
293+  11E7 01 FF 07         ld bc, #07ff
294+  11EA ED 79            out (c), a
295+  11EC C9               ret
296+  11ED
297+  11ED              menu_rom48_cb:
298+  11ED 3A 44 C0         ld a, (cfg.rom48)
299+  11F0                  IFDEF REV_C
300+  11F0 ~                    ld c, 1
301+  11F0                  ELSE
302+  11F0 0E 02                ld c, 2
303+  11F2                  ENDIF
304+  11F2 CD 1E 13         call menu_handle_press
305+  11F5 32 44 C0         ld (cfg.rom48), a
306+  11F8 01 FF 06         ld bc, #06ff
307+  11FB ED 79            out (c), a
308+  11FD C9               ret
309+  11FE
310+  11FE              menu_sd_cb:
311+  11FE 3A 47 C0         ld a, (cfg.sd)
312+  1201 0E 02            ld c, 2
313+  1203 CD 1E 13         call menu_handle_press
314+  1206 32 47 C0         ld (cfg.sd), a
315+  1209 01 FF 09         ld bc, #09ff
316+  120C ED 79            out (c), a
317+  120E C9               ret
318+  120F
319+  120F              menu_ulaplus_cb:
320+  120F 3A 48 C0         ld a, (cfg.ulaplus)
321+  1212 0E 01            ld c, 1
322+  1214 CD 1E 13         call menu_handle_press
323+  1217 32 48 C0         ld (cfg.ulaplus), a
324+  121A 01 FF 0A         ld bc, #0aff
325+  121D ED 79            out (c), a
326+  121F C9               ret
327+  1220
328+  1220              menu_dac_cb:
329+  1220 3A 49 C0         ld a, (cfg.dac)
330+  1223 0E 03            ld c, 3
331+  1225 CD 1E 13         call menu_handle_press
332+  1228 32 49 C0         ld (cfg.dac), a
333+  122B 01 FF 0B         ld bc, #0bff
334+  122E ED 79            out (c), a
335+  1230 C9               ret
336+  1231
337+  1231              menu_spk_cb:
338+  1231 3A 4A C0         ld a, (cfg.spk)
339+  1234 0E 01            ld c, 1
340+  1236 CD 1E 13         call menu_handle_press
341+  1239 32 4A C0         ld (cfg.spk), a
342+  123C 01 FF 0C         ld bc, #0cff
343+  123F ED 79            out (c), a
344+  1241 C9               ret
345+  1242
346+  1242              menu_tsfm_cb:
347+  1242 3A 4D C0         ld a, (cfgext.tsfm)
348+  1245 0E 01            ld c, 1
349+  1247 CD 1E 13         call menu_handle_press
350+  124A 32 4D C0         ld (cfgext.tsfm), a
351+  124D 01 FF E1         ld bc, #e1ff
352+  1250 ED 79            out (c), a
353+  1252 C9               ret
354+  1253
355+  1253              menu_saa_cb:
356+  1253 3A 4E C0         ld a, (cfgext.saa)
357+  1256 0E 01            ld c, 1
358+  1258 CD 1E 13         call menu_handle_press
359+  125B 32 4E C0         ld (cfgext.saa), a
360+  125E 01 FF E2         ld bc, #e2ff
361+  1261 ED 79            out (c), a
362+  1263 C9               ret
363+  1264
364+  1264              menu_gs_cb:
365+  1264 3A 4F C0         ld a, (cfgext.gs)
366+  1267 0E 01            ld c, 1
367+  1269 CD 1E 13         call menu_handle_press
368+  126C 32 4F C0         ld (cfgext.gs), a
369+  126F 01 FF E3         ld bc, #e3ff
370+  1272 ED 79            out (c), a
371+  1274 C9               ret
372+  1275
373+  1275              menu_exit_cb:
374+  1275 CB 62            bit 4, d                ; action?
375+  1277 20 0C            jr nz, .exit
376+  1279 3A 28 C0         ld a, (var_exit_reboot)
377+  127C 0E 01            ld c, 1
378+  127E CD 1E 13         call menu_handle_press
379+  1281 32 28 C0         ld (var_exit_reboot), a
380+  1284 C9               ret
381+  1285              .exit
382+  1285 3E 01            ld a, 1
383+  1287 32 27 C0         ld (var_exit_flag), a
384+  128A C9               ret
385+  128B
386+  128B              menu_menuadv_cb:
387+  128B 21 1A 10         ld hl, menuadv
388+  128E CD 17 0E         call menu_init
389+  1291 C9               ret
390+  1292
391+  1292              menu_sdind_cb:
392+  1292 3A 4B C0         ld a, (cfg.sdind)
393+  1295 0E 01            ld c, 1
394+  1297 CD 1E 13         call menu_handle_press
395+  129A 32 4B C0         ld (cfg.sdind), a
396+  129D 01 FF 0C         ld bc, #0cff
397+  12A0 ED 79            out (c), a
398+  12A2 C9               ret
399+  12A3
400+  12A3              menu_bright_cb:
401+  12A3 3A 4C C0         ld a, (cfg.bright)
402+  12A6 0E 01            ld c, 1
403+  12A8 CD 1E 13         call menu_handle_press
404+  12AB 32 4C C0         ld (cfg.bright), a
405+  12AE 01 FF 0D         ld bc, #0dff
406+  12B1 ED 79            out (c), a
407+  12B3 C9               ret
408+  12B4
409+  12B4              menu_cfgsave_cb:
410+  12B4 CB 62            bit 4, d                ; action?
411+  12B6 C8               ret z
412+  12B7 CD ED 06         call save_user_config
413+  12BA B7               or a                    ; a == 1 means error
414+  12BB C0               ret nz                  ; ...
415+  12BC D5               push de
416+  12BD 3E 01            ld a, 1
417+  12BF 06 08            ld b, SAVE_ANIMATION_LEN    ; show some border effect to provide feedback about operation
418+  12C1              .loop:                          ; ...
419+  12C1 C5               push bc                     ; ...
420+  12C2 CD CA 12         call .save_animation_effect ; ...
421+  12C5 C1               pop bc                      ; ...
422+  12C6 10 F9            djnz .loop                  ; ...
423+  12C8 D1               pop de
424+  12C9 C9               ret
425+  12CA              .save_animation_effect:
426+  12CA 1E FF            ld e, 255
427+  12CC              .loop_outer:
428+  12CC 3C               inc a                       ; toggle border
429+  12CD E6 01            and 1                       ; ...
430+  12CF 01 FF 01         ld bc, #01ff                ; ...
431+  12D2 ED 79            out (c), a                  ; ...
432+  12D4 16 FF            ld d, 255
433+  12D6              .loop_inner:
434+  12D6 15               dec d
435+  12D7 20 FD            jr nz, .loop_inner
436+  12D9 1D               dec e
437+  12DA 20 F0            jr nz, .loop_outer
438+  12DC C9               ret
439+  12DD
440+  12DD              menu_back_cb:
441+  12DD CD 2D 09         call restore_screen
442+  12E0 2A 2F C0         ld hl, (var_menumain)
443+  12E3 C3 17 0E         jp menu_init
444+  12E6
445+  12E6              menu_boot_normal_cb:
446+  12E6 CB 62            bit 4, d                ; action?
447+  12E8 C8               ret z
448+  12E9 3E 00            ld a, 0
449+  12EB 32 55 C0         ld (cfg_saved.custom_rom), a
450+  12EE 3E 01            ld a, 1
451+  12F0 32 27 C0         ld (var_exit_flag), a
452+  12F3 C9               ret
453+  12F4
454+  12F4              menu_boot_zx80_cb:
455+  12F4 CB 62            bit 4, d                ; action?
456+  12F6 C8               ret z
457+  12F7 3E 81            ld a, #81
458+  12F9 32 55 C0         ld (cfg_saved.custom_rom), a
459+  12FC 3E 01            ld a, 1
460+  12FE 32 27 C0         ld (var_exit_flag), a
461+  1301 C9               ret
462+  1302
463+  1302              menu_boot_zx81_cb:
464+  1302 CB 62            bit 4, d                ; action?
465+  1304 C8               ret z
466+  1305 3E 80            ld a, #80
467+  1307 32 55 C0         ld (cfg_saved.custom_rom), a
468+  130A 3E 01            ld a, 1
469+  130C 32 27 C0         ld (var_exit_flag), a
470+  130F C9               ret
471+  1310
472+  1310              menu_boot_negluk_cb:
473+  1310 CB 62            bit 4, d                ; action?
474+  1312 C8               ret z
475+  1313 3E 83            ld a, #83
476+  1315 32 55 C0         ld (cfg_saved.custom_rom), a
477+  1318 3E 01            ld a, 1
478+  131A 32 27 C0         ld (var_exit_flag), a
479+  131D C9               ret
480+  131E
481+  131E
482+  131E              ; IN  -  A - variable to change
483+  131E              ; IN  -  C - max value
484+  131E              ; IN  -  D - pressed key
485+  131E              ; OUT -  A - new variable value
486+  131E              menu_handle_press:
487+  131E CB 62            bit 4, d                ; action?
488+  1320 20 09            jr nz, .increment
489+  1322 CB 42            bit 0, d                ; right?
490+  1324 20 05            jr nz, .increment
491+  1326 CB 4A            bit 1, d                ; left?
492+  1328 20 08            jr nz, .decrement
493+  132A C9               ret
494+  132B              .increment:
495+  132B B9               cp c                    ; if (value >= max) value = 0
496+  132C 30 02            jr nc, .increment_roll  ; ...
497+  132E 3C               inc a                   ; else value++
498+  132F C9               ret
499+  1330              .increment_roll:
500+  1330 AF               xor a                   ; value = 0
501+  1331 C9               ret
502+  1332              .decrement:
503+  1332 B7               or a                    ; if (value == 0) value = max
504+  1333 28 02            jr z, .decrement_roll   ; ...
505+  1335 3D               dec a                   ; else value--
506+  1336 C9               ret
507+  1337              .decrement_roll:
508+  1337 79               ld a, c                 ; value = max
509+  1338 C9               ret
510+  1339
# file closed: menu_structure.asm
714   1339                  include flash.asm
# file opened: flash.asm
  1+  1339              ; OUT - F  - garbage
  2+  1339              ; OUT - BC - garbage
  3+  1339              ; OUT - DE - garbage
  4+  1339              ; OUT - HL - garbage
  5+  1339              flash_program_byte_prepare:
  6+  1339 11 66 DB     	ld de, var_ram_func
  7+  133C 21 48 13     	ld hl, flash_program_byte.sub
  8+  133F 01 2C 00     	ld bc, flash_program_byte.sub_end-flash_program_byte.sub
  9+  1342 ED B0        	ldir
 10+  1344 C9           	ret
 11+  1345
 12+  1345
 13+  1345              ; IN  - IY - dest
 14+  1345              ; IN  - A  - byte
 15+  1345              ; OUT - AF - garbage
 16+  1345              ; OUT - BC - garbage
 17+  1345              ; OUT - HL - garbage
 18+  1345              flash_program_byte:
 19+  1345 C3 66 DB     	jp var_ram_func
 20+  1348              .sub:
 21+  1348 01 FF 01     	ld bc, #01ff                ; enable jedec seq
 22+  134B 26 04        	ld h, #4                    ; ...
 23+  134D ED 61        	out (c), h                  ; ...
 24+  134F 21 55 15     	ld hl, #1555
 24+  1352 36 AA          ld (hl), #AA ; unlock jedec sequence
 25+  1354 21 AA 2A     	ld hl, #2aaa
 25+  1357 36 55          ld (hl), #55 ; ...
 26+  1359 21 55 15     	ld hl, #1555
 26+  135C 36 A0          ld (hl), #A0 ; ...
 27+  135E 26 00        	ld h, #0                    ; disable jedec seq
 28+  1360 ED 61        	out (c), h                  ; ...
 29+  1362 FD 77 00     	ld (iy), a                  ; actual write
 30+  1365              .loop:
 31+  1365 FD 7E 00     	ld a, (iy)                  ; status polling
 32+  1368 FD 6E 00     	ld l, (iy)                  ; ...
 33+  136B AD           	xor l                       ; DQ6 is inverting each read while flash busy
 34+  136C CB 77        	bit 6, a                    ; ...
 35+  136E 20 F5        	jr nz, .loop                ; ...
 36+  1370 24           	inc h                       ; enable border
 37+  1371 ED 61        	out (c), h                  ; ...
 38+  1373 C9           	ret
 39+  1374              .sub_end:
 40+  1374
 41+  1374
 42+  1374              ; IN  - IX - source
 43+  1374              ; IN  - IY - dest
 44+  1374              ; IN  - B  - count
 45+  1374              ; OUT - AF - garbage
 46+  1374              ; OUT - BC - garbage
 47+  1374              ; OUT - DE - garbage
 48+  1374              ; OUT - HL - garbage
 49+  1374              ; OUT - IX - garbage
 50+  1374              ; OUT - IY - garbage
 51+  1374              flash_program:
 52+  1374 C5           	push bc
 53+  1375 CD 39 13     	call flash_program_byte_prepare
 54+  1378 C1           	pop bc
 55+  1379              .loop:
 56+  1379 DD 7E 00     	ld a, (ix)
 57+  137C C5           	push bc
 58+  137D CD 45 13     	call flash_program_byte
 59+  1380 C1           	pop bc
 60+  1381 DD 23        	inc ix
 61+  1383 FD 23        	inc iy
 62+  1385 10 F2        	djnz .loop
 63+  1387 C9           	ret
 64+  1388
 65+  1388
 66+  1388              ; IN  - IY - address to erase
 67+  1388              ; OUT - AF - garbage
 68+  1388              ; OUT - BC - garbage
 69+  1388              ; OUT - DE - garbage
 70+  1388              ; OUT - HL - garbage
 71+  1388              flash_erase_sector:
 72+  1388 11 66 DB     	ld de, var_ram_func
 73+  138B 21 96 13     	ld hl, .sub
 74+  138E 01 37 00     	ld bc, .sub_end-.sub
 75+  1391 ED B0        	ldir
 76+  1393 C3 66 DB     	jp var_ram_func
 77+  1396              .sub:
 78+  1396 01 FF 01     	ld bc, #01ff                ; enable jedec seq
 79+  1399 26 04        	ld h, #4                    ; ...
 80+  139B ED 61        	out (c), h                  ; ...
 81+  139D 21 55 15     	ld hl, #1555
 81+  13A0 36 AA          ld (hl), #AA ; unlock jedec sequence
 82+  13A2 21 AA 2A     	ld hl, #2aaa
 82+  13A5 36 55          ld (hl), #55 ; ...
 83+  13A7 21 55 15     	ld hl, #1555
 83+  13AA 36 80          ld (hl), #80 ; ...
 84+  13AC 21 55 15     	ld hl, #1555
 84+  13AF 36 AA          ld (hl), #AA ; ...
 85+  13B1 21 AA 2A     	ld hl, #2aaa
 85+  13B4 36 55          ld (hl), #55 ; ...
 86+  13B6 26 00        	ld h, #0                    ; disable jedec seq
 87+  13B8 ED 61        	out (c), h                  ; ...
 88+  13BA FD 36 00 30  	ld (iy), #30                ; actual erase
 89+  13BE              .loop:
 90+  13BE FD 7E 00     	ld a, (iy)                  ; status polling
 91+  13C1 FD 6E 00     	ld l, (iy)                  ; ...
 92+  13C4 AD           	xor l                       ; DQ6 is inverting each read while flash busy
 93+  13C5 CB 77        	bit 6, a                    ; ...
 94+  13C7 20 F5        	jr nz, .loop                ; ...
 95+  13C9 24           	inc h                       ; enable border
 96+  13CA ED 61        	out (c), h                  ; ...
 97+  13CC C9           	ret
 98+  13CD              .sub_end:
 99+  13CD
100+  13CD
101+  13CD              ; OUT -  A - garbage
102+  13CD              ; OUT -  F - Z = 0 if flash is supported, 1 if not
103+  13CD              ; OUT - BC - garbage
104+  13CD              ; OUT - DE - garbage
105+  13CD              ; OUT - HL - garbage
106+  13CD              flash_is_supported:
107+  13CD 11 66 DB     	ld de, var_ram_func
108+  13D0 21 E9 13     	ld hl, .sub
109+  13D3 01 2F 00     	ld bc, .sub_end-.sub
110+  13D6 ED B0        	ldir
111+  13D8 CD 66 DB     	call var_ram_func
112+  13DB 7B           	ld a, e                     ; a = manufacturer_id
113+  13DC FE BF        	cp #bf                      ; if manufacturer != SST - exit
114+  13DE C0           	ret nz                      ; ...
115+  13DF 7A           	ld a, d                     ; a = device_id
116+  13E0 FE B7        	cp #b7                      ; SST32SF040
117+  13E2 C8           	ret z                       ; ...
118+  13E3 FE B6        	cp #b6                      ; SST32SF020
119+  13E5 C8           	ret z                       ; ...
120+  13E6 FE B5        	cp #b5                      ; SST39SF010
121+  13E8 C9           	ret                         ; ...
122+  13E9              .sub:
123+  13E9 01 FF 01     	ld bc, #01ff                ; enable jedec seq
124+  13EC 26 04        	ld h, #4                    ; ...
125+  13EE ED 61        	out (c), h                  ; ...
126+  13F0 21 55 15     	ld hl, #1555
126+  13F3 36 AA          ld (hl), #AA ; software id entry jedec sequence
127+  13F5 21 AA 2A     	ld hl, #2aaa
127+  13F8 36 55          ld (hl), #55 ; ...
128+  13FA 21 55 15     	ld hl, #1555
128+  13FD 36 90          ld (hl), #90 ; ...
129+  13FF 00           	nop                         ; just for safety, m1 cycle is longer than T{ida}
130+  1400 ED 5B 00 00  	ld de, (#0000)              ; d = device_id; e = manufacturer_id
131+  1404 21 55 15     	ld hl, #1555
131+  1407 36 AA          ld (hl), #AA ; software id exit jedec sequence
132+  1409 21 AA 2A     	ld hl, #2aaa
132+  140C 36 55          ld (hl), #55 ; ...
133+  140E 21 55 15     	ld hl, #1555
133+  1411 36 F0          ld (hl), #F0 ; ...
134+  1413 26 01        	ld h, #1                    ; disable jedec seq, enable border
135+  1415 ED 61        	out (c), h                  ; ...
136+  1417 C9           	ret
137+  1418              .sub_end:
138+  1418
# file closed: flash.asm
715   1418                  include font.asm
# file opened: font.asm
  1+  1418              font:
  2+  1418
  3+  1418              font_space:
  4+  1418 00               DG --------
  5+  1419 00               DG --------
  6+  141A 00               DG --------
  7+  141B 00               DG --------
  8+  141C 00               DG --------
  9+  141D 00               DG --------
 10+  141E 00               DG --------
 11+  141F 00               DG --------
 12+  1420
 13+  1420              font_exclamation_mark:
 14+  1420 00               DG --------
 15+  1421 10               DG ---#----
 16+  1422 10               DG ---#----
 17+  1423 10               DG ---#----
 18+  1424 10               DG ---#----
 19+  1425 00               DG --------
 20+  1426 10               DG ---#----
 21+  1427 00               DG --------
 22+  1428
 23+  1428              font_quotation_mark:
 24+  1428 00               DG --------
 25+  1429 24               DG --#--#--
 26+  142A 24               DG --#--#--
 27+  142B 00               DG --------
 28+  142C 00               DG --------
 29+  142D 00               DG --------
 30+  142E 00               DG --------
 31+  142F 00               DG --------
 32+  1430
 33+  1430              font_number_sign:
 34+  1430 00               DG --------
 35+  1431 24               DG --#--#--
 36+  1432 7E               DG -######-
 37+  1433 24               DG --#--#--
 38+  1434 24               DG --#--#--
 39+  1435 7E               DG -######-
 40+  1436 24               DG --#--#--
 41+  1437 00               DG --------
 42+  1438
 43+  1438              font_dollar_sign:
 44+  1438 00               DG --------
 45+  1439 10               DG ---#----
 46+  143A 7C               DG -#####--
 47+  143B 50               DG -#-#----
 48+  143C 7C               DG -#####--
 49+  143D 14               DG ---#-#--
 50+  143E 7C               DG -#####--
 51+  143F 10               DG ---#----
 52+  1440
 53+  1440              font_percent_sign:
 54+  1440 00               DG --------
 55+  1441 62               DG -##---#-
 56+  1442 64               DG -##--#--
 57+  1443 08               DG ----#---
 58+  1444 10               DG ---#----
 59+  1445 26               DG --#--##-
 60+  1446 46               DG -#---##-
 61+  1447 00               DG --------
 62+  1448
 63+  1448              font_ampersand:
 64+  1448 00               DG --------
 65+  1449 10               DG ---#----
 66+  144A 28               DG --#-#---
 67+  144B 10               DG ---#----
 68+  144C 2A               DG --#-#-#-
 69+  144D 44               DG -#---#--
 70+  144E 3A               DG --###-#-
 71+  144F 00               DG --------
 72+  1450
 73+  1450              font_apostrophe:
 74+  1450 00               DG --------
 75+  1451 08               DG ----#---
 76+  1452 10               DG ---#----
 77+  1453 00               DG --------
 78+  1454 00               DG --------
 79+  1455 00               DG --------
 80+  1456 00               DG --------
 81+  1457 00               DG --------
 82+  1458
 83+  1458              font_left_parenthesis:
 84+  1458 00               DG --------
 85+  1459 08               DG ----#---
 86+  145A 10               DG ---#----
 87+  145B 10               DG ---#----
 88+  145C 10               DG ---#----
 89+  145D 10               DG ---#----
 90+  145E 08               DG ----#---
 91+  145F 00               DG --------
 92+  1460
 93+  1460              font_right_parenthesis:
 94+  1460 00               DG --------
 95+  1461 10               DG ---#----
 96+  1462 08               DG ----#---
 97+  1463 08               DG ----#---
 98+  1464 08               DG ----#---
 99+  1465 08               DG ----#---
100+  1466 10               DG ---#----
101+  1467 00               DG --------
102+  1468
103+  1468              font_asterisk:
104+  1468 00               DG --------
105+  1469 28               DG --#-#---
106+  146A 10               DG ---#----
107+  146B 7C               DG -#####--
108+  146C 10               DG ---#----
109+  146D 28               DG --#-#---
110+  146E 00               DG --------
111+  146F 00               DG --------
112+  1470
113+  1470              font_plus_sign:
114+  1470 00               DG --------
115+  1471 00               DG --------
116+  1472 10               DG ---#----
117+  1473 10               DG ---#----
118+  1474 7C               DG -#####--
119+  1475 10               DG ---#----
120+  1476 10               DG ---#----
121+  1477 00               DG --------
122+  1478
123+  1478              font_comma:
124+  1478 00               DG --------
125+  1479 00               DG --------
126+  147A 00               DG --------
127+  147B 00               DG --------
128+  147C 00               DG --------
129+  147D 08               DG ----#---
130+  147E 08               DG ----#---
131+  147F 10               DG ---#----
132+  1480
133+  1480              font_hyphen_minus:
134+  1480 00               DG --------
135+  1481 00               DG --------
136+  1482 00               DG --------
137+  1483 7C               DG -#####--
138+  1484 00               DG --------
139+  1485 00               DG --------
140+  1486 00               DG --------
141+  1487 00               DG --------
142+  1488
143+  1488              font_full_stop:
144+  1488 00               DG --------
145+  1489 00               DG --------
146+  148A 00               DG --------
147+  148B 00               DG --------
148+  148C 00               DG --------
149+  148D 18               DG ---##---
150+  148E 18               DG ---##---
151+  148F 00               DG --------
152+  1490
153+  1490              font_solidus:
154+  1490 00               DG --------
155+  1491 02               DG ------#-
156+  1492 04               DG -----#--
157+  1493 08               DG ----#---
158+  1494 10               DG ---#----
159+  1495 20               DG --#-----
160+  1496 40               DG -#------
161+  1497 00               DG --------
162+  1498
163+  1498              font_digit_zero:
164+  1498 00               DG --------
165+  1499 3C               DG --####--
166+  149A 46               DG -#---##-
167+  149B 4A               DG -#--#-#-
168+  149C 52               DG -#-#--#-
169+  149D 62               DG -##---#-
170+  149E 3C               DG --####--
171+  149F 00               DG --------
172+  14A0
173+  14A0              font_digit_one:
174+  14A0 00               DG --------
175+  14A1 30               DG --##----
176+  14A2 50               DG -#-#----
177+  14A3 10               DG ---#----
178+  14A4 10               DG ---#----
179+  14A5 10               DG ---#----
180+  14A6 7C               DG -#####--
181+  14A7 00               DG --------
182+  14A8
183+  14A8              font_digit_two:
184+  14A8 00               DG --------
185+  14A9 3C               DG --####--
186+  14AA 42               DG -#----#-
187+  14AB 02               DG ------#-
188+  14AC 3C               DG --####--
189+  14AD 40               DG -#------
190+  14AE 7E               DG -######-
191+  14AF 00               DG --------
192+  14B0
193+  14B0              font_digit_three:
194+  14B0 00               DG --------
195+  14B1 3C               DG --####--
196+  14B2 42               DG -#----#-
197+  14B3 0C               DG ----##--
198+  14B4 02               DG ------#-
199+  14B5 42               DG -#----#-
200+  14B6 3C               DG --####--
201+  14B7 00               DG --------
202+  14B8
203+  14B8              font_digit_four:
204+  14B8 00               DG --------
205+  14B9 08               DG ----#---
206+  14BA 18               DG ---##---
207+  14BB 28               DG --#-#---
208+  14BC 48               DG -#--#---
209+  14BD 7E               DG -######-
210+  14BE 08               DG ----#---
211+  14BF 00               DG --------
212+  14C0
213+  14C0              font_digit_five:
214+  14C0 00               DG --------
215+  14C1 7E               DG -######-
216+  14C2 40               DG -#------
217+  14C3 7C               DG -#####--
218+  14C4 02               DG ------#-
219+  14C5 42               DG -#----#-
220+  14C6 3C               DG --####--
221+  14C7 00               DG --------
222+  14C8
223+  14C8              font_digit_six:
224+  14C8 00               DG --------
225+  14C9 3C               DG --####--
226+  14CA 40               DG -#------
227+  14CB 7C               DG -#####--
228+  14CC 42               DG -#----#-
229+  14CD 42               DG -#----#-
230+  14CE 3C               DG --####--
231+  14CF 00               DG --------
232+  14D0
233+  14D0              font_digit_seven:
234+  14D0 00               DG --------
235+  14D1 7E               DG -######-
236+  14D2 02               DG ------#-
237+  14D3 04               DG -----#--
238+  14D4 08               DG ----#---
239+  14D5 10               DG ---#----
240+  14D6 10               DG ---#----
241+  14D7 00               DG --------
242+  14D8
243+  14D8              font_digit_eight:
244+  14D8 00               DG --------
245+  14D9 3C               DG --####--
246+  14DA 42               DG -#----#-
247+  14DB 3C               DG --####--
248+  14DC 42               DG -#----#-
249+  14DD 42               DG -#----#-
250+  14DE 3C               DG --####--
251+  14DF 00               DG --------
252+  14E0
253+  14E0              font_digit_nine:
254+  14E0 00               DG --------
255+  14E1 3C               DG --####--
256+  14E2 42               DG -#----#-
257+  14E3 42               DG -#----#-
258+  14E4 3E               DG --#####-
259+  14E5 02               DG ------#-
260+  14E6 3C               DG --####--
261+  14E7 00               DG --------
262+  14E8
263+  14E8              font_colon:
264+  14E8 00               DG --------
265+  14E9 00               DG --------
266+  14EA 10               DG ---#----
267+  14EB 00               DG --------
268+  14EC 00               DG --------
269+  14ED 10               DG ---#----
270+  14EE 00               DG --------
271+  14EF 00               DG --------
272+  14F0
273+  14F0              font_semicolon:
274+  14F0 00               DG --------
275+  14F1 08               DG ----#---
276+  14F2 00               DG --------
277+  14F3 00               DG --------
278+  14F4 08               DG ----#---
279+  14F5 08               DG ----#---
280+  14F6 10               DG ---#----
281+  14F7 00               DG --------
282+  14F8
283+  14F8              font_less_than_sign:
284+  14F8 00               DG --------
285+  14F9 08               DG ----#---
286+  14FA 10               DG ---#----
287+  14FB 20               DG --#-----
288+  14FC 10               DG ---#----
289+  14FD 08               DG ----#---
290+  14FE 00               DG --------
291+  14FF 00               DG --------
292+  1500
293+  1500              font_equals_sign:
294+  1500 00               DG --------
295+  1501 00               DG --------
296+  1502 7C               DG -#####--
297+  1503 00               DG --------
298+  1504 7C               DG -#####--
299+  1505 00               DG --------
300+  1506 00               DG --------
301+  1507 00               DG --------
302+  1508
303+  1508              font_greater_than_sign:
304+  1508 00               DG --------
305+  1509 20               DG --#-----
306+  150A 10               DG ---#----
307+  150B 08               DG ----#---
308+  150C 10               DG ---#----
309+  150D 20               DG --#-----
310+  150E 00               DG --------
311+  150F 00               DG --------
312+  1510
313+  1510              font_question_mark:
314+  1510 00               DG --------
315+  1511 3C               DG --####--
316+  1512 42               DG -#----#-
317+  1513 04               DG -----#--
318+  1514 08               DG ----#---
319+  1515 00               DG --------
320+  1516 08               DG ----#---
321+  1517 00               DG --------
322+  1518
323+  1518              font_commercial_at:
324+  1518 00               DG --------
325+  1519 3C               DG --####--
326+  151A 4A               DG -#--#-#-
327+  151B 56               DG -#-#-##-
328+  151C 5E               DG -#-####-
329+  151D 40               DG -#------
330+  151E 3C               DG --####--
331+  151F 00               DG --------
332+  1520
333+  1520              font_latin_capital_letter_a:
334+  1520 00               DG --------
335+  1521 3C               DG --####--
336+  1522 42               DG -#----#-
337+  1523 42               DG -#----#-
338+  1524 7E               DG -######-
339+  1525 42               DG -#----#-
340+  1526 42               DG -#----#-
341+  1527 00               DG --------
342+  1528
343+  1528              font_latin_capital_letter_b:
344+  1528 00               DG --------
345+  1529 7C               DG -#####--
346+  152A 42               DG -#----#-
347+  152B 7C               DG -#####--
348+  152C 42               DG -#----#-
349+  152D 42               DG -#----#-
350+  152E 7C               DG -#####--
351+  152F 00               DG --------
352+  1530
353+  1530              font_latin_capital_letter_c:
354+  1530 00               DG --------
355+  1531 3C               DG --####--
356+  1532 42               DG -#----#-
357+  1533 40               DG -#------
358+  1534 40               DG -#------
359+  1535 42               DG -#----#-
360+  1536 3C               DG --####--
361+  1537 00               DG --------
362+  1538
363+  1538              font_latin_capital_letter_d:
364+  1538 00               DG --------
365+  1539 78               DG -####---
366+  153A 44               DG -#---#--
367+  153B 42               DG -#----#-
368+  153C 42               DG -#----#-
369+  153D 44               DG -#---#--
370+  153E 78               DG -####---
371+  153F 00               DG --------
372+  1540
373+  1540              font_latin_capital_letter_e:
374+  1540 00               DG --------
375+  1541 7E               DG -######-
376+  1542 40               DG -#------
377+  1543 7C               DG -#####--
378+  1544 40               DG -#------
379+  1545 40               DG -#------
380+  1546 7E               DG -######-
381+  1547 00               DG --------
382+  1548
383+  1548              font_latin_capital_letter_f:
384+  1548 00               DG --------
385+  1549 7E               DG -######-
386+  154A 40               DG -#------
387+  154B 7C               DG -#####--
388+  154C 40               DG -#------
389+  154D 40               DG -#------
390+  154E 40               DG -#------
391+  154F 00               DG --------
392+  1550
393+  1550              font_latin_capital_letter_g:
394+  1550 00               DG --------
395+  1551 3C               DG --####--
396+  1552 42               DG -#----#-
397+  1553 40               DG -#------
398+  1554 4E               DG -#--###-
399+  1555 42               DG -#----#-
400+  1556 3C               DG --####--
401+  1557 00               DG --------
402+  1558
403+  1558              font_latin_capital_letter_h:
404+  1558 00               DG --------
405+  1559 42               DG -#----#-
406+  155A 42               DG -#----#-
407+  155B 7E               DG -######-
408+  155C 42               DG -#----#-
409+  155D 42               DG -#----#-
410+  155E 42               DG -#----#-
411+  155F 00               DG --------
412+  1560
413+  1560              font_latin_capital_letter_i:
414+  1560 00               DG --------
415+  1561 7C               DG -#####--
416+  1562 10               DG ---#----
417+  1563 10               DG ---#----
418+  1564 10               DG ---#----
419+  1565 10               DG ---#----
420+  1566 7C               DG -#####--
421+  1567 00               DG --------
422+  1568
423+  1568              font_latin_capital_letter_j:
424+  1568 00               DG --------
425+  1569 02               DG ------#-
426+  156A 02               DG ------#-
427+  156B 02               DG ------#-
428+  156C 42               DG -#----#-
429+  156D 42               DG -#----#-
430+  156E 3C               DG --####--
431+  156F 00               DG --------
432+  1570
433+  1570              font_latin_capital_letter_k:
434+  1570 00               DG --------
435+  1571 44               DG -#---#--
436+  1572 48               DG -#--#---
437+  1573 70               DG -###----
438+  1574 48               DG -#--#---
439+  1575 44               DG -#---#--
440+  1576 42               DG -#----#-
441+  1577 00               DG --------
442+  1578
443+  1578              font_latin_capital_letter_l:
444+  1578 00               DG --------
445+  1579 40               DG -#------
446+  157A 40               DG -#------
447+  157B 40               DG -#------
448+  157C 40               DG -#------
449+  157D 40               DG -#------
450+  157E 7E               DG -######-
451+  157F 00               DG --------
452+  1580
453+  1580              font_latin_capital_letter_m:
454+  1580 00               DG --------
455+  1581 42               DG -#----#-
456+  1582 66               DG -##--##-
457+  1583 5A               DG -#-##-#-
458+  1584 42               DG -#----#-
459+  1585 42               DG -#----#-
460+  1586 42               DG -#----#-
461+  1587 00               DG --------
462+  1588
463+  1588              font_latin_capital_letter_n:
464+  1588 00               DG --------
465+  1589 42               DG -#----#-
466+  158A 62               DG -##---#-
467+  158B 52               DG -#-#--#-
468+  158C 4A               DG -#--#-#-
469+  158D 46               DG -#---##-
470+  158E 42               DG -#----#-
471+  158F 00               DG --------
472+  1590
473+  1590              font_latin_capital_letter_o:
474+  1590 00               DG --------
475+  1591 3C               DG --####--
476+  1592 42               DG -#----#-
477+  1593 42               DG -#----#-
478+  1594 42               DG -#----#-
479+  1595 42               DG -#----#-
480+  1596 3C               DG --####--
481+  1597 00               DG --------
482+  1598
483+  1598              font_latin_capital_letter_p:
484+  1598 00               DG --------
485+  1599 7C               DG -#####--
486+  159A 42               DG -#----#-
487+  159B 42               DG -#----#-
488+  159C 7C               DG -#####--
489+  159D 40               DG -#------
490+  159E 40               DG -#------
491+  159F 00               DG --------
492+  15A0
493+  15A0              font_latin_capital_letter_q:
494+  15A0 00               DG --------
495+  15A1 3C               DG --####--
496+  15A2 42               DG -#----#-
497+  15A3 42               DG -#----#-
498+  15A4 52               DG -#-#--#-
499+  15A5 4A               DG -#--#-#-
500+  15A6 3C               DG --####--
501+  15A7 00               DG --------
502+  15A8
503+  15A8              font_latin_capital_letter_r:
504+  15A8 00               DG --------
505+  15A9 7C               DG -#####--
506+  15AA 42               DG -#----#-
507+  15AB 42               DG -#----#-
508+  15AC 7C               DG -#####--
509+  15AD 44               DG -#---#--
510+  15AE 42               DG -#----#-
511+  15AF 00               DG --------
512+  15B0
513+  15B0              font_latin_capital_letter_s:
514+  15B0 00               DG --------
515+  15B1 3C               DG --####--
516+  15B2 40               DG -#------
517+  15B3 3C               DG --####--
518+  15B4 02               DG ------#-
519+  15B5 42               DG -#----#-
520+  15B6 3C               DG --####--
521+  15B7 00               DG --------
522+  15B8
523+  15B8              font_latin_capital_letter_t:
524+  15B8 00               DG --------
525+  15B9 FE               DG #######-
526+  15BA 10               DG ---#----
527+  15BB 10               DG ---#----
528+  15BC 10               DG ---#----
529+  15BD 10               DG ---#----
530+  15BE 10               DG ---#----
531+  15BF 00               DG --------
532+  15C0
533+  15C0              font_latin_capital_letter_u:
534+  15C0 00               DG --------
535+  15C1 42               DG -#----#-
536+  15C2 42               DG -#----#-
537+  15C3 42               DG -#----#-
538+  15C4 42               DG -#----#-
539+  15C5 42               DG -#----#-
540+  15C6 3C               DG --####--
541+  15C7 00               DG --------
542+  15C8
543+  15C8              font_latin_capital_letter_v:
544+  15C8 00               DG --------
545+  15C9 42               DG -#----#-
546+  15CA 42               DG -#----#-
547+  15CB 42               DG -#----#-
548+  15CC 42               DG -#----#-
549+  15CD 24               DG --#--#--
550+  15CE 18               DG ---##---
551+  15CF 00               DG --------
552+  15D0
553+  15D0              font_latin_capital_letter_w:
554+  15D0 00               DG --------
555+  15D1 42               DG -#----#-
556+  15D2 42               DG -#----#-
557+  15D3 42               DG -#----#-
558+  15D4 42               DG -#----#-
559+  15D5 5A               DG -#-##-#-
560+  15D6 24               DG --#--#--
561+  15D7 00               DG --------
562+  15D8
563+  15D8              font_latin_capital_letter_x:
564+  15D8 00               DG --------
565+  15D9 42               DG -#----#-
566+  15DA 24               DG --#--#--
567+  15DB 18               DG ---##---
568+  15DC 18               DG ---##---
569+  15DD 24               DG --#--#--
570+  15DE 42               DG -#----#-
571+  15DF 00               DG --------
572+  15E0
573+  15E0              font_latin_capital_letter_y:
574+  15E0 00               DG --------
575+  15E1 82               DG #-----#-
576+  15E2 44               DG -#---#--
577+  15E3 28               DG --#-#---
578+  15E4 10               DG ---#----
579+  15E5 10               DG ---#----
580+  15E6 10               DG ---#----
581+  15E7 00               DG --------
582+  15E8
583+  15E8              font_latin_capital_letter_z:
584+  15E8 00               DG --------
585+  15E9 7E               DG -######-
586+  15EA 04               DG -----#--
587+  15EB 08               DG ----#---
588+  15EC 10               DG ---#----
589+  15ED 20               DG --#-----
590+  15EE 7E               DG -######-
591+  15EF 00               DG --------
592+  15F0
593+  15F0              font_left_square_bracket:
594+  15F0 00               DG --------
595+  15F1 38               DG --###---
596+  15F2 20               DG --#-----
597+  15F3 20               DG --#-----
598+  15F4 20               DG --#-----
599+  15F5 20               DG --#-----
600+  15F6 38               DG --###---
601+  15F7 00               DG --------
602+  15F8
603+  15F8              font_reverse_solidus:
604+  15F8 00               DG --------
605+  15F9 40               DG -#------
606+  15FA 20               DG --#-----
607+  15FB 10               DG ---#----
608+  15FC 08               DG ----#---
609+  15FD 04               DG -----#--
610+  15FE 02               DG ------#-
611+  15FF 00               DG --------
612+  1600
613+  1600              font_right_square_bracket:
614+  1600 00               DG --------
615+  1601 38               DG --###---
616+  1602 08               DG ----#---
617+  1603 08               DG ----#---
618+  1604 08               DG ----#---
619+  1605 08               DG ----#---
620+  1606 38               DG --###---
621+  1607 00               DG --------
622+  1608
623+  1608              font_circumflex_accent:
624+  1608 00               DG --------
625+  1609 10               DG ---#----
626+  160A 38               DG --###---
627+  160B 54               DG -#-#-#--
628+  160C 10               DG ---#----
629+  160D 10               DG ---#----
630+  160E 10               DG ---#----
631+  160F 00               DG --------
632+  1610
633+  1610              font_low_line:
634+  1610 00               DG --------
635+  1611 00               DG --------
636+  1612 00               DG --------
637+  1613 00               DG --------
638+  1614 00               DG --------
639+  1615 00               DG --------
640+  1616 00               DG --------
641+  1617 FF               DG ########
642+  1618
643+  1618              font_grave_accent:
644+  1618 00               DG --------
645+  1619 1C               DG ---###--
646+  161A 22               DG --#---#-
647+  161B 78               DG -####---
648+  161C 20               DG --#-----
649+  161D 20               DG --#-----
650+  161E 7E               DG -######-
651+  161F 00               DG --------
652+  1620
653+  1620              font_latin_small_letter_a:
654+  1620 00               DG --------
655+  1621 00               DG --------
656+  1622 38               DG --###---
657+  1623 04               DG -----#--
658+  1624 3C               DG --####--
659+  1625 44               DG -#---#--
660+  1626 3C               DG --####--
661+  1627 00               DG --------
662+  1628
663+  1628              font_latin_small_letter_b:
664+  1628 40               DG -#------
665+  1629 40               DG -#------
666+  162A 78               DG -####---
667+  162B 44               DG -#---#--
668+  162C 44               DG -#---#--
669+  162D 44               DG -#---#--
670+  162E 78               DG -####---
671+  162F 00               DG --------
672+  1630
673+  1630              font_latin_small_letter_c:
674+  1630 00               DG --------
675+  1631 00               DG --------
676+  1632 38               DG --###---
677+  1633 40               DG -#------
678+  1634 40               DG -#------
679+  1635 40               DG -#------
680+  1636 38               DG --###---
681+  1637 00               DG --------
682+  1638
683+  1638              font_latin_small_letter_d:
684+  1638 04               DG -----#--
685+  1639 04               DG -----#--
686+  163A 3C               DG --####--
687+  163B 44               DG -#---#--
688+  163C 44               DG -#---#--
689+  163D 44               DG -#---#--
690+  163E 3C               DG --####--
691+  163F 00               DG --------
692+  1640
693+  1640              font_latin_small_letter_e:
694+  1640 00               DG --------
695+  1641 00               DG --------
696+  1642 38               DG --###---
697+  1643 44               DG -#---#--
698+  1644 78               DG -####---
699+  1645 40               DG -#------
700+  1646 3C               DG --####--
701+  1647 00               DG --------
702+  1648
703+  1648              font_latin_small_letter_f:
704+  1648 00               DG --------
705+  1649 18               DG ---##---
706+  164A 20               DG --#-----
707+  164B 70               DG -###----
708+  164C 20               DG --#-----
709+  164D 20               DG --#-----
710+  164E 20               DG --#-----
711+  164F 00               DG --------
712+  1650
713+  1650              font_latin_small_letter_g:
714+  1650 00               DG --------
715+  1651 00               DG --------
716+  1652 3C               DG --####--
717+  1653 44               DG -#---#--
718+  1654 44               DG -#---#--
719+  1655 3C               DG --####--
720+  1656 04               DG -----#--
721+  1657 38               DG --###---
722+  1658
723+  1658              font_latin_small_letter_h:
724+  1658 00               DG --------
725+  1659 40               DG -#------
726+  165A 40               DG -#------
727+  165B 78               DG -####---
728+  165C 44               DG -#---#--
729+  165D 44               DG -#---#--
730+  165E 44               DG -#---#--
731+  165F 00               DG --------
732+  1660
733+  1660              font_latin_small_letter_i:
734+  1660 00               DG --------
735+  1661 10               DG ---#----
736+  1662 00               DG --------
737+  1663 30               DG --##----
738+  1664 10               DG ---#----
739+  1665 10               DG ---#----
740+  1666 38               DG --###---
741+  1667 00               DG --------
742+  1668
743+  1668              font_latin_small_letter_j:
744+  1668 04               DG -----#--
745+  1669 00               DG --------
746+  166A 04               DG -----#--
747+  166B 04               DG -----#--
748+  166C 04               DG -----#--
749+  166D 24               DG --#--#--
750+  166E 18               DG ---##---
751+  166F 00               DG --------
752+  1670
753+  1670              font_latin_small_letter_k:
754+  1670 00               DG --------
755+  1671 20               DG --#-----
756+  1672 28               DG --#-#---
757+  1673 30               DG --##----
758+  1674 30               DG --##----
759+  1675 28               DG --#-#---
760+  1676 24               DG --#--#--
761+  1677 00               DG --------
762+  1678
763+  1678              font_latin_small_letter_l:
764+  1678 00               DG --------
765+  1679 10               DG ---#----
766+  167A 10               DG ---#----
767+  167B 10               DG ---#----
768+  167C 10               DG ---#----
769+  167D 10               DG ---#----
770+  167E 0C               DG ----##--
771+  167F 00               DG --------
772+  1680
773+  1680              font_latin_small_letter_m:
774+  1680 00               DG --------
775+  1681 00               DG --------
776+  1682 68               DG -##-#---
777+  1683 54               DG -#-#-#--
778+  1684 54               DG -#-#-#--
779+  1685 54               DG -#-#-#--
780+  1686 54               DG -#-#-#--
781+  1687 00               DG --------
782+  1688
783+  1688              font_latin_small_letter_n:
784+  1688 00               DG --------
785+  1689 00               DG --------
786+  168A 78               DG -####---
787+  168B 44               DG -#---#--
788+  168C 44               DG -#---#--
789+  168D 44               DG -#---#--
790+  168E 44               DG -#---#--
791+  168F 00               DG --------
792+  1690
793+  1690              font_latin_small_letter_o:
794+  1690 00               DG --------
795+  1691 00               DG --------
796+  1692 38               DG --###---
797+  1693 44               DG -#---#--
798+  1694 44               DG -#---#--
799+  1695 44               DG -#---#--
800+  1696 38               DG --###---
801+  1697 00               DG --------
802+  1698
803+  1698              font_latin_small_letter_p:
804+  1698 00               DG --------
805+  1699 00               DG --------
806+  169A 78               DG -####---
807+  169B 44               DG -#---#--
808+  169C 44               DG -#---#--
809+  169D 78               DG -####---
810+  169E 40               DG -#------
811+  169F 40               DG -#------
812+  16A0
813+  16A0              font_latin_small_letter_q:
814+  16A0 00               DG --------
815+  16A1 00               DG --------
816+  16A2 3C               DG --####--
817+  16A3 44               DG -#---#--
818+  16A4 44               DG -#---#--
819+  16A5 3C               DG --####--
820+  16A6 04               DG -----#--
821+  16A7 06               DG -----##-
822+  16A8
823+  16A8              font_latin_small_letter_r:
824+  16A8 00               DG --------
825+  16A9 00               DG --------
826+  16AA 38               DG --###---
827+  16AB 40               DG -#------
828+  16AC 40               DG -#------
829+  16AD 40               DG -#------
830+  16AE 40               DG -#------
831+  16AF 00               DG --------
832+  16B0
833+  16B0              font_latin_small_letter_s:
834+  16B0 00               DG --------
835+  16B1 00               DG --------
836+  16B2 38               DG --###---
837+  16B3 40               DG -#------
838+  16B4 38               DG --###---
839+  16B5 04               DG -----#--
840+  16B6 78               DG -####---
841+  16B7 00               DG --------
842+  16B8
843+  16B8              font_latin_small_letter_t:
844+  16B8 00               DG --------
845+  16B9 10               DG ---#----
846+  16BA 38               DG --###---
847+  16BB 10               DG ---#----
848+  16BC 10               DG ---#----
849+  16BD 10               DG ---#----
850+  16BE 0C               DG ----##--
851+  16BF 00               DG --------
852+  16C0
853+  16C0              font_latin_small_letter_u:
854+  16C0 00               DG --------
855+  16C1 00               DG --------
856+  16C2 44               DG -#---#--
857+  16C3 44               DG -#---#--
858+  16C4 44               DG -#---#--
859+  16C5 44               DG -#---#--
860+  16C6 38               DG --###---
861+  16C7 00               DG --------
862+  16C8
863+  16C8              font_latin_small_letter_v:
864+  16C8 00               DG --------
865+  16C9 00               DG --------
866+  16CA 44               DG -#---#--
867+  16CB 44               DG -#---#--
868+  16CC 28               DG --#-#---
869+  16CD 28               DG --#-#---
870+  16CE 10               DG ---#----
871+  16CF 00               DG --------
872+  16D0
873+  16D0              font_latin_small_letter_w:
874+  16D0 00               DG --------
875+  16D1 00               DG --------
876+  16D2 54               DG -#-#-#--
877+  16D3 54               DG -#-#-#--
878+  16D4 54               DG -#-#-#--
879+  16D5 54               DG -#-#-#--
880+  16D6 28               DG --#-#---
881+  16D7 00               DG --------
882+  16D8
883+  16D8              font_latin_small_letter_x:
884+  16D8 00               DG --------
885+  16D9 00               DG --------
886+  16DA 44               DG -#---#--
887+  16DB 28               DG --#-#---
888+  16DC 10               DG ---#----
889+  16DD 28               DG --#-#---
890+  16DE 44               DG -#---#--
891+  16DF 00               DG --------
892+  16E0
893+  16E0              font_latin_small_letter_y:
894+  16E0 00               DG --------
895+  16E1 00               DG --------
896+  16E2 44               DG -#---#--
897+  16E3 44               DG -#---#--
898+  16E4 44               DG -#---#--
899+  16E5 3C               DG --####--
900+  16E6 04               DG -----#--
901+  16E7 38               DG --###---
902+  16E8
903+  16E8              font_latin_small_letter_z:
904+  16E8 00               DG --------
905+  16E9 00               DG --------
906+  16EA 7C               DG -#####--
907+  16EB 08               DG ----#---
908+  16EC 10               DG ---#----
909+  16ED 20               DG --#-----
910+  16EE 7C               DG -#####--
911+  16EF 00               DG --------
912+  16F0
913+  16F0              font_left_curly_bracket:
914+  16F0 1C               DG ---###--
915+  16F1 10               DG ---#----
916+  16F2 10               DG ---#----
917+  16F3 60               DG -##-----
918+  16F4 10               DG ---#----
919+  16F5 10               DG ---#----
920+  16F6 1C               DG ---###--
921+  16F7 00               DG --------
922+  16F8
923+  16F8              font_vertical_line:
924+  16F8 10               DG ---#----
925+  16F9 10               DG ---#----
926+  16FA 10               DG ---#----
927+  16FB 10               DG ---#----
928+  16FC 10               DG ---#----
929+  16FD 10               DG ---#----
930+  16FE 10               DG ---#----
931+  16FF 10               DG ---#----
932+  1700
933+  1700              font_right_curly_bracket:
934+  1700 70               DG -###----
935+  1701 10               DG ---#----
936+  1702 10               DG ---#----
937+  1703 0C               DG ----##--
938+  1704 10               DG ---#----
939+  1705 10               DG ---#----
940+  1706 70               DG -###----
941+  1707 00               DG --------
942+  1708
943+  1708              font_tilde:
944+  1708 00               DG --------
945+  1709 00               DG --------
946+  170A 00               DG --------
947+  170B 14               DG ---#-#--
948+  170C 28               DG --#-#---
949+  170D 00               DG --------
950+  170E 00               DG --------
951+  170F 00               DG --------
952+  1710
953+  1710              font_delete:
954+  1710 3C               DG --####--
955+  1711 42               DG -#----#-
956+  1712 99               DG #--##--#
957+  1713 A1               DG #-#----#
958+  1714 A1               DG #-#----#
959+  1715 99               DG #--##--#
960+  1716 42               DG -#----#-
961+  1717 3C               DG --####--
962+  1718
# file closed: font.asm
716   1718                  include strings.asm
# file opened: strings.asm
  1+  1718 00               DB 0
  2+  1719
  3+  1719
  4+  1719 5A 58 20 53  str_sizif: DB "ZX Spectrum",0
  4+  171D 70 65 63 74
  4+  1721 72 75 6D 00
  5+  1725              str_sizif_end:
  6+  1725
  7+  1725 20 50 41 55  str_pause DB " PAUSE ",0
  7+  1729 53 45 20 00
  8+  172D              str_pause_end:
  9+  172D
 10+  172D 45 78 69 74  str_exit: DB "Exit",0
 10+  1731 00
 11+  1732              str_exit_end:
 12+  1732
 13+  1732 26 20 72 65  str_exit_reboot: DB "& reboot     ",0
 13+  1736 62 6F 6F 74
 13+  173A 20 20 20 20
 13+  173E 20 00
 14+  1740              str_exit_reboot_end:
 15+  1740
 16+  1740 20 20 20 20  str_exit_no_reboot: DB "             ",0
 16+  1744 20 20 20 20
 16+  1748 20 20 20 20
 16+  174C 20 00
 17+  174E              str_exit_no_reboot_end:
 18+  174E
 19+  174E 20 20 20 4F  str_on: DB "   ON",0
 19+  1752 4E 00
 20+  1754              str_on_end:
 21+  1754
 22+  1754 20 20 20 20  str_off: DB "      OFF",0
 22+  1758 20 20 4F 46
 22+  175C 46 00
 23+  175E              str_off_end:
 24+  175E
 25+  175E 20 4F 4E 00  str_on_short: DB " ON",0
 26+  1762              str_on_short_end:
 27+  1762
 28+  1762 4F 46 46 00  str_off_short: DB "OFF",0
 29+  1766              str_off_short_end:
 30+  1766
 31+  1766 4D 61 63 68  str_machine: DB "Machine",0
 31+  176A 69 6E 65 00
 32+  176E              str_machine_end:
 33+  176E
 34+  176E 20 20 20 20  str_machine_48: DB "      48",0
 34+  1772 20 20 34 38
 34+  1776 00
 35+  1777              str_machine_48_end:
 36+  1777
 37+  1777 20 20 20 20  str_machine_128: DB "     128",0
 37+  177B 20 31 32 38
 37+  177F 00
 38+  1780              str_machine_128_end:
 39+  1780
 40+  1780 20 20 20 20  str_machine_3e: DB "     +3e",0
 40+  1784 20 2B 33 65
 40+  1788 00
 41+  1789              str_machine_3e_end:
 42+  1789
 43+  1789 50 65 6E 74  str_machine_pentagon: DB "Pentagon",0
 43+  178D 61 67 6F 6E
 43+  1791 00
 44+  1792              str_machine_pentagon_end:
 45+  1792
 46+  1792 43 50 55 20  str_cpu: DB "CPU freq",0
 46+  1796 66 72 65 71
 46+  179A 00
 47+  179B              str_cpu_end:
 48+  179B
 49+  179B 33 2E 35 4D  str_cpu_35: DB "3.5MHz",0
 49+  179F 48 7A 00
 50+  17A2              str_cpu_35_end:
 51+  17A2
 52+  17A2 34 2E 34 4D  str_cpu_44: DB "4.4MHz",0
 52+  17A6 48 7A 00
 53+  17A9              str_cpu_44_end:
 54+  17A9
 55+  17A9 35 2E 32 4D  str_cpu_52: DB "5.2MHz",0
 55+  17AD 48 7A 00
 56+  17B0              str_cpu_52_end:
 57+  17B0
 58+  17B0 20 20 37 4D  str_cpu_7: DB "  7MHz",0
 58+  17B4 48 7A 00
 59+  17B7              str_cpu_7_end:
 60+  17B7
 61+  17B7 20 31 34 4D  str_cpu_14: DB " 14MHz",0
 61+  17BB 48 7A 00
 62+  17BE              str_cpu_14_end:
 63+  17BE
 64+  17BE 50 61 6E 6E  str_panning: DB "Panning",0
 64+  17C2 69 6E 67 00
 65+  17C6              str_panning_end:
 66+  17C6
 67+  17C6 20 41 42 43  str_panning_abc: DB " ABC",0
 67+  17CA 00
 68+  17CB              str_panning_abc_end:
 69+  17CB
 70+  17CB 20 41 43 42  str_panning_acb: DB " ACB",0
 70+  17CF 00
 71+  17D0              str_panning_acb_end:
 72+  17D0
 73+  17D0 4D 6F 6E 6F  str_panning_mono: DB "Mono",0
 73+  17D4 00
 74+  17D5              str_panning_mono_end:
 75+  17D5
 76+  17D5 4A 6F 79 73  str_joystick: DB "Joystick",0
 76+  17D9 74 69 63 6B
 76+  17DD 00
 77+  17DE              str_joystick_end:
 78+  17DE
 79+  17DE 4B 65 6D 70  str_joystick_kempston: DB "Kempston",0
 79+  17E2 73 74 6F 6E
 79+  17E6 00
 80+  17E7              str_joystick_kempston_end:
 81+  17E7
 82+  17E7 53 69 6E 63  str_joystick_sinclair: DB "Sinclair",0
 82+  17EB 6C 61 69 72
 82+  17EF 00
 83+  17F0              str_joystick_sinclair_end:
 84+  17F0
 85+  17F0 34 38 4B 20  str_rom48: DB "48K ROM",0
 85+  17F4 52 4F 4D 00
 86+  17F8              str_rom48_end:
 87+  17F8
 88+  17F8 44 65 66 61  str_rom48_default: DB "Default",0
 88+  17FC 75 6C 74 00
 89+  1800              str_rom48_default_end:
 90+  1800
 91+  1800 20 20 20 20  str_rom48_lg: DB "     LG",0
 91+  1804 20 4C 47 00
 92+  1808              str_rom48_lg_end:
 93+  1808
 94+  1808 20 4F 70 65  str_rom48_opense: DB " OpenSE",0
 94+  180C 6E 53 45 00
 95+  1810              str_rom48_opense_end:
 96+  1810
 97+  1810 53 44 20 63  str_sd: DB "SD card",0
 97+  1814 61 72 64 00
 98+  1818              str_sd_end:
 99+  1818
100+  1818 44 69 76 4D  str_divmmc: DB "DivMMC",0
100+  181C 4D 43 00
101+  181F              str_divmmc_end:
102+  181F
103+  181F 5A 43 2F 2B  str_zc3e: DB "ZC/+3e",0
103+  1823 33 65 00
104+  1826              str_zc3e_end:
105+  1826
106+  1826 55 4C 41 2B  str_ulaplus: DB "ULA+",0
106+  182A 00
107+  182B              str_ulaplus_end
108+  182B
109+  182B 44 41 43 00  str_dac: DB "DAC",0
110+  182F              str_dac_end
111+  182F
112+  182F 20 20 20 43  str_dac_covox: DB "   Covox",0
112+  1833 6F 76 6F 78
112+  1837 00
113+  1838              str_dac_covox_end
114+  1838
115+  1838 20 20 20 20  str_dac_sd: DB "      SD",0
115+  183C 20 20 53 44
115+  1840 00
116+  1841              str_dac_sd_end
117+  1841
118+  1841 43 6F 76 6F  str_dac_covoxsd: DB "Covox+SD",0
118+  1845 78 2B 53 44
118+  1849 00
119+  184A              str_dac_covoxsd_end
120+  184A
121+  184A 49 6E 74 20  str_spk: DB "Int Speaker",0
121+  184E 53 70 65 61
121+  1852 6B 65 72 00
122+  1856              str_spk_end
123+  1856
124+  1856 54 53 46 4D  str_tsfm: DB "TSFM+MIDI",0
124+  185A 2B 4D 49 44
124+  185E 49 00
125+  1860              str_tsfm_end
126+  1860
127+  1860 53 41 41 31  str_saa: DB "SAA1099",0
127+  1864 30 39 39 00
128+  1868              str_saa_end
129+  1868
130+  1868 47 53 00     str_gs: DB "GS",0
131+  186B              str_gs_end
132+  186B
133+  186B 41 64 76 61  str_menuadv: DB "Advanced...",0
133+  186F 6E 63 65 64
133+  1873 2E 2E 2E 00
134+  1877              str_menuadv_end:
135+  1877
136+  1877 53 44 20 69  str_sd_indication: DB "SD indication",0
136+  187B 6E 64 69 63
136+  187F 61 74 69 6F
136+  1883 6E 00
137+  1885              str_sd_indication_end:
138+  1885
139+  1885 42 72 69 67  str_bright_boost: DB "Bright boost",0
139+  1889 68 74 20 62
139+  188D 6F 6F 73 74
139+  1891 00
140+  1892              str_bright_boost_end:
141+  1892
142+  1892 53 61 76 65  str_save_settings: DB "Save settings",0
142+  1896 20 73 65 74
142+  189A 74 69 6E 67
142+  189E 73 00
143+  18A0              str_save_settings_end:
144+  18A0
145+  18A0 45 52 52 4F  str_error: DB "ERROR",0
145+  18A4 52 00
146+  18A6              str_error_end:
147+  18A6
148+  18A6 20 20 20 20  str_no_error: DB "     ",0
148+  18AA 20 00
149+  18AC              str_no_error_end:
150+  18AC
151+  18AC 47 6F 20 62  str_back: DB "Go back...",0
151+  18B0 61 63 6B 2E
151+  18B4 2E 2E 00
152+  18B7              str_back_end:
153+  18B7
154+  18B7 4E 6F 72 6D  str_normal_boot: DB "Normal boot", 0
154+  18BB 61 6C 20 62
154+  18BF 6F 6F 74 00
155+  18C3              str_normal_boot_end:
156+  18C3
157+  18C3 5A 58 38 30  str_zx80: DB "ZX80",0
157+  18C7 00
158+  18C8              str_zx80_end:
159+  18C8
160+  18C8 5A 58 38 31  str_zx81: DB "ZX81",0
160+  18CC 00
161+  18CD              str_zx81_end:
162+  18CD
163+  18CD 48 45 20 47  str_negluk: DB "HE GLUK",0
163+  18D1 4C 55 4B 00
164+  18D5              str_negluk_end:
165+  18D5
# file closed: strings.asm
717   18D5
718   18D5                  DISPLAY "Free space: ",/D,#2000-$
719   18D5                  ASSERT $ < #2000
720   18D5
721   18D5
722   18D5              ; Rewrittable area to save user settings. Flash sector size = 4Kb
723   18D5                  ORG #2000
724   2000              user_config_sector:
725   2000 00 00 00 00  user_config_initialized: DB 0,0,0,0
726   2004 00 00 03 00  user_config CFG_T
726   2008 01 00 00 00
726   200C 01 02 01 03
726   2010 01 01 00
727   2013
728   2013
729   2013              ; BDI/TR-DOS detection routine. See detect_external_bdi
730   2013                  ORG #3D2F
731   3D2F              trdos_3d2f_entrypoint:
732   3D2F 00               nop
733   3D30 3E 42            ld a, #42
734   3D32 C9               ret
735   3D33
736   3D33              ; Just some string at the end of ROM
737   3D33                  ORG #3FE8
738   3FE8 00 45 6E 64      DB 0,"End of Sizif Magic ROM",0
738   3FEC 20 6F 66 20
738   3FF0 53 69 7A 69
738   3FF4 66 20 4D 61
738   3FF8 67 69 63 20
738   3FFC 52 4F 4D 00
739   4000
740   4000              ; Variables
741   4000                  ORG #C000
742   C000                  include variables.asm
# file opened: variables.asm
  1+  C000 00          > DB 0
  1+  C001 00          > DB 0
  1+  C002 00          > DB 0
  1+  C003 00          > DB 0
  1+  C004 00          > DB 0
  1+  C005 00          > DB 0
  1+  C006 00          > DB 0
  1+  C007 00          > DB 0
  1+  C008 00          > DB 0
  1+  C009 00          > DB 0
  1+  C00A 00          > DB 0
  1+  C00B 00          > DB 0
  1+  C00C 00          > DB 0
  1+  C00D 00          > DB 0
  1+  C00E 00          > DB 0
  1+  C00F 00          > DB 0
  1+  C010 00          > DB 0
  1+  C011 00          > DB 0
  1+  C012 00          > DB 0
  1+  C013 00          > DB 0
  1+  C014 00          > DB 0
  1+  C015 00          > DB 0
  1+  C016 00          > DB 0
  1+  C017 00          > DB 0
  1+  C018 00          > DB 0
  1+  C019 00          > DB 0
  1+  C01A 00          > DB 0
  1+  C01B 00          > DB 0
  1+  C01C 00          > DB 0
  1+  C01D 00          > DB 0
  1+  C01E 00          > DB 0
  1+  C01F 00          > DB 0
  2+  C020 00           var_save_ulaplus: DB 0
  3+  C021 00 00        var_sp_reg: DW 0
  4+  C023 00 00        var_int_vector: DW 0
  5+  C025 00           var_magic_enter_cnt: DB 0
  6+  C026 00           var_magic_leave_cnt: DB 0
  7+  C027 00           var_exit_flag: DB 0
  8+  C028 00           var_exit_reboot: DB 0
  9+  C029 00           var_input_key: DB 0
 10+  C02A 00           var_input_key_last: DB 0
 11+  C02B 00           var_input_key_hold_timer: DB 0
 12+  C02C 00           var_pause_is_released: DB 0
 13+  C02D 00 00        var_main_fun: DW 0
 14+  C02F 00 00        var_menumain: DW 0
 15+  C031 00 00 00 00  var_menu: MENU_T
 15+  C035 00 00 00 00
 15+  C039 00
 16+  C03A 00           var_menu_current_item: DB 0
 17+  C03B 00           var_menu_animate_cnt: DB 0
 18+  C03C 01           var_ext_presence: DB 1
 19+  C03D 00           var_flash_error: DB 0
 20+  C03E
 21+  C03E 00 00 03 00  cfg CFG_T
 21+  C042 01 00 00 00
 21+  C046 01 02 01 03
 21+  C04A 01 01 00
 22+  C04D 01 01 01     cfgext CFGEXT_T
 23+  C050 00 00 03 00  cfg_saved CFG_T
 23+  C054 01 00 00 00
 23+  C058 01 02 01 03
 23+  C05C 01 01 00
 24+  C05F 01 01 01     cfgext_saved CFGEXT_T
 25+  C062 B1 5B 00 B5  cfg_initialized: DB #B1, #5B, #00, #B5
 26+  C066
 27+  C066 00          > DB 0
 27+  C067 00          > DB 0
 27+  C068 00          > DB 0
 27+  C069 00          > DB 0
 27+  C06A 00          > DB 0
 27+  C06B 00          > DB 0
 27+  C06C 00          > DB 0
 27+  C06D 00          > DB 0
 27+  C06E 00          > DB 0
 27+  C06F 00          > DB 0
 27+  C070 00          > DB 0
 27+  C071 00          > DB 0
 27+  C072 00          > DB 0
 27+  C073 00          > DB 0
 27+  C074 00          > DB 0
 27+  C075 00          > DB 0
 27+  C076 00          > DB 0
 27+  C077 00          > DB 0
 27+  C078 00          > DB 0
 27+  C079 00          > DB 0
 27+  C07A 00          > DB 0
 27+  C07B 00          > DB 0
 27+  C07C 00          > DB 0
 27+  C07D 00          > DB 0
 27+  C07E 00          > DB 0
 27+  C07F 00          > DB 0
 27+  C080 00          > DB 0
 27+  C081 00          > DB 0
 27+  C082 00          > DB 0
 27+  C083 00          > DB 0
 27+  C084 00          > DB 0
 27+  C085 00          > DB 0
 27+  C086 00          > DB 0
 27+  C087 00          > DB 0
 27+  C088 00          > DB 0
 27+  C089 00          > DB 0
 27+  C08A 00          > DB 0
 27+  C08B 00          > DB 0
 27+  C08C 00          > DB 0
 27+  C08D 00          > DB 0
 27+  C08E 00          > DB 0
 27+  C08F 00          > DB 0
 27+  C090 00          > DB 0
 27+  C091 00          > DB 0
 27+  C092 00          > DB 0
 27+  C093 00          > DB 0
 27+  C094 00          > DB 0
 27+  C095 00          > DB 0
 27+  C096 00          > DB 0
 27+  C097 00          > DB 0
 27+  C098 00          > DB 0
 27+  C099 00          > DB 0
 27+  C09A 00          > DB 0
 27+  C09B 00          > DB 0
 27+  C09C 00          > DB 0
 27+  C09D 00          > DB 0
 27+  C09E 00          > DB 0
 27+  C09F 00          > DB 0
 27+  C0A0 00          > DB 0
 27+  C0A1 00          > DB 0
 27+  C0A2 00          > DB 0
 27+  C0A3 00          > DB 0
 27+  C0A4 00          > DB 0
 27+  C0A5 00          > DB 0
 27+  C0A6 00          > DB 0
 27+  C0A7 00          > DB 0
 27+  C0A8 00          > DB 0
 27+  C0A9 00          > DB 0
 27+  C0AA 00          > DB 0
 27+  C0AB 00          > DB 0
 27+  C0AC 00          > DB 0
 27+  C0AD 00          > DB 0
 27+  C0AE 00          > DB 0
 27+  C0AF 00          > DB 0
 27+  C0B0 00          > DB 0
 27+  C0B1 00          > DB 0
 27+  C0B2 00          > DB 0
 27+  C0B3 00          > DB 0
 27+  C0B4 00          > DB 0
 27+  C0B5 00          > DB 0
 27+  C0B6 00          > DB 0
 27+  C0B7 00          > DB 0
 27+  C0B8 00          > DB 0
 27+  C0B9 00          > DB 0
 27+  C0BA 00          > DB 0
 27+  C0BB 00          > DB 0
 27+  C0BC 00          > DB 0
 27+  C0BD 00          > DB 0
 27+  C0BE 00          > DB 0
 27+  C0BF 00          > DB 0
 27+  C0C0 00          > DB 0
 27+  C0C1 00          > DB 0
 27+  C0C2 00          > DB 0
 27+  C0C3 00          > DB 0
 27+  C0C4 00          > DB 0
 27+  C0C5 00          > DB 0
 27+  C0C6 00          > DB 0
 27+  C0C7 00          > DB 0
 27+  C0C8 00          > DB 0
 27+  C0C9 00          > DB 0
 27+  C0CA 00          > DB 0
 27+  C0CB 00          > DB 0
 27+  C0CC 00          > DB 0
 27+  C0CD 00          > DB 0
 27+  C0CE 00          > DB 0
 27+  C0CF 00          > DB 0
 27+  C0D0 00          > DB 0
 27+  C0D1 00          > DB 0
 27+  C0D2 00          > DB 0
 27+  C0D3 00          > DB 0
 27+  C0D4 00          > DB 0
 27+  C0D5 00          > DB 0
 27+  C0D6 00          > DB 0
 27+  C0D7 00          > DB 0
 27+  C0D8 00          > DB 0
 27+  C0D9 00          > DB 0
 27+  C0DA 00          > DB 0
 27+  C0DB 00          > DB 0
 27+  C0DC 00          > DB 0
 27+  C0DD 00          > DB 0
 27+  C0DE 00          > DB 0
 27+  C0DF 00          > DB 0
 27+  C0E0 00          > DB 0
 27+  C0E1 00          > DB 0
 27+  C0E2 00          > DB 0
 27+  C0E3 00          > DB 0
 27+  C0E4 00          > DB 0
 27+  C0E5 00          > DB 0
 27+  C0E6 00          > DB 0
 27+  C0E7 00          > DB 0
 27+  C0E8 00          > DB 0
 27+  C0E9 00          > DB 0
 27+  C0EA 00          > DB 0
 27+  C0EB 00          > DB 0
 27+  C0EC 00          > DB 0
 27+  C0ED 00          > DB 0
 27+  C0EE 00          > DB 0
 27+  C0EF 00          > DB 0
 27+  C0F0 00          > DB 0
 27+  C0F1 00          > DB 0
 27+  C0F2 00          > DB 0
 27+  C0F3 00          > DB 0
 27+  C0F4 00          > DB 0
 27+  C0F5 00          > DB 0
 27+  C0F6 00          > DB 0
 27+  C0F7 00          > DB 0
 27+  C0F8 00          > DB 0
 27+  C0F9 00          > DB 0
 27+  C0FA 00          > DB 0
 27+  C0FB 00          > DB 0
 27+  C0FC 00          > DB 0
 27+  C0FD 00          > DB 0
 27+  C0FE 00          > DB 0
 27+  C0FF 00          > DB 0
 27+  C100 00          > DB 0
 27+  C101 00          > DB 0
 27+  C102 00          > DB 0
 27+  C103 00          > DB 0
 27+  C104 00          > DB 0
 27+  C105 00          > DB 0
 27+  C106 00          > DB 0
 27+  C107 00          > DB 0
 27+  C108 00          > DB 0
 27+  C109 00          > DB 0
 27+  C10A 00          > DB 0
 27+  C10B 00          > DB 0
 27+  C10C 00          > DB 0
 27+  C10D 00          > DB 0
 27+  C10E 00          > DB 0
 27+  C10F 00          > DB 0
 27+  C110 00          > DB 0
 27+  C111 00          > DB 0
 27+  C112 00          > DB 0
 27+  C113 00          > DB 0
 27+  C114 00          > DB 0
 27+  C115 00          > DB 0
 27+  C116 00          > DB 0
 27+  C117 00          > DB 0
 27+  C118 00          > DB 0
 27+  C119 00          > DB 0
 27+  C11A 00          > DB 0
 27+  C11B 00          > DB 0
 27+  C11C 00          > DB 0
 27+  C11D 00          > DB 0
 27+  C11E 00          > DB 0
 27+  C11F 00          > DB 0
 27+  C120 00          > DB 0
 27+  C121 00          > DB 0
 27+  C122 00          > DB 0
 27+  C123 00          > DB 0
 27+  C124 00          > DB 0
 27+  C125 00          > DB 0
 27+  C126 00          > DB 0
 27+  C127 00          > DB 0
 27+  C128 00          > DB 0
 27+  C129 00          > DB 0
 27+  C12A 00          > DB 0
 27+  C12B 00          > DB 0
 27+  C12C 00          > DB 0
 27+  C12D 00          > DB 0
 27+  C12E 00          > DB 0
 27+  C12F 00          > DB 0
 27+  C130 00          > DB 0
 27+  C131 00          > DB 0
 27+  C132 00          > DB 0
 27+  C133 00          > DB 0
 27+  C134 00          > DB 0
 27+  C135 00          > DB 0
 27+  C136 00          > DB 0
 27+  C137 00          > DB 0
 27+  C138 00          > DB 0
 27+  C139 00          > DB 0
 27+  C13A 00          > DB 0
 27+  C13B 00          > DB 0
 27+  C13C 00          > DB 0
 27+  C13D 00          > DB 0
 27+  C13E 00          > DB 0
 27+  C13F 00          > DB 0
 27+  C140 00          > DB 0
 27+  C141 00          > DB 0
 27+  C142 00          > DB 0
 27+  C143 00          > DB 0
 27+  C144 00          > DB 0
 27+  C145 00          > DB 0
 27+  C146 00          > DB 0
 27+  C147 00          > DB 0
 27+  C148 00          > DB 0
 27+  C149 00          > DB 0
 27+  C14A 00          > DB 0
 27+  C14B 00          > DB 0
 27+  C14C 00          > DB 0
 27+  C14D 00          > DB 0
 27+  C14E 00          > DB 0
 27+  C14F 00          > DB 0
 27+  C150 00          > DB 0
 27+  C151 00          > DB 0
 27+  C152 00          > DB 0
 27+  C153 00          > DB 0
 27+  C154 00          > DB 0
 27+  C155 00          > DB 0
 27+  C156 00          > DB 0
 27+  C157 00          > DB 0
 27+  C158 00          > DB 0
 27+  C159 00          > DB 0
 27+  C15A 00          > DB 0
 27+  C15B 00          > DB 0
 27+  C15C 00          > DB 0
 27+  C15D 00          > DB 0
 27+  C15E 00          > DB 0
 27+  C15F 00          > DB 0
 27+  C160 00          > DB 0
 27+  C161 00          > DB 0
 27+  C162 00          > DB 0
 27+  C163 00          > DB 0
 27+  C164 00          > DB 0
 27+  C165 00          > DB 0
 27+  C166 00          > DB 0
 27+  C167 00          > DB 0
 27+  C168 00          > DB 0
 27+  C169 00          > DB 0
 27+  C16A 00          > DB 0
 27+  C16B 00          > DB 0
 27+  C16C 00          > DB 0
 27+  C16D 00          > DB 0
 27+  C16E 00          > DB 0
 27+  C16F 00          > DB 0
 27+  C170 00          > DB 0
 27+  C171 00          > DB 0
 27+  C172 00          > DB 0
 27+  C173 00          > DB 0
 27+  C174 00          > DB 0
 27+  C175 00          > DB 0
 27+  C176 00          > DB 0
 27+  C177 00          > DB 0
 27+  C178 00          > DB 0
 27+  C179 00          > DB 0
 27+  C17A 00          > DB 0
 27+  C17B 00          > DB 0
 27+  C17C 00          > DB 0
 27+  C17D 00          > DB 0
 27+  C17E 00          > DB 0
 27+  C17F 00          > DB 0
 27+  C180 00          > DB 0
 27+  C181 00          > DB 0
 27+  C182 00          > DB 0
 27+  C183 00          > DB 0
 27+  C184 00          > DB 0
 27+  C185 00          > DB 0
 27+  C186 00          > DB 0
 27+  C187 00          > DB 0
 27+  C188 00          > DB 0
 27+  C189 00          > DB 0
 27+  C18A 00          > DB 0
 27+  C18B 00          > DB 0
 27+  C18C 00          > DB 0
 27+  C18D 00          > DB 0
 27+  C18E 00          > DB 0
 27+  C18F 00          > DB 0
 27+  C190 00          > DB 0
 27+  C191 00          > DB 0
 27+  C192 00          > DB 0
 27+  C193 00          > DB 0
 27+  C194 00          > DB 0
 27+  C195 00          > DB 0
 27+  C196 00          > DB 0
 27+  C197 00          > DB 0
 27+  C198 00          > DB 0
 27+  C199 00          > DB 0
 27+  C19A 00          > DB 0
 27+  C19B 00          > DB 0
 27+  C19C 00          > DB 0
 27+  C19D 00          > DB 0
 27+  C19E 00          > DB 0
 27+  C19F 00          > DB 0
 27+  C1A0 00          > DB 0
 27+  C1A1 00          > DB 0
 27+  C1A2 00          > DB 0
 27+  C1A3 00          > DB 0
 27+  C1A4 00          > DB 0
 27+  C1A5 00          > DB 0
 27+  C1A6 00          > DB 0
 27+  C1A7 00          > DB 0
 27+  C1A8 00          > DB 0
 27+  C1A9 00          > DB 0
 27+  C1AA 00          > DB 0
 27+  C1AB 00          > DB 0
 27+  C1AC 00          > DB 0
 27+  C1AD 00          > DB 0
 27+  C1AE 00          > DB 0
 27+  C1AF 00          > DB 0
 27+  C1B0 00          > DB 0
 27+  C1B1 00          > DB 0
 27+  C1B2 00          > DB 0
 27+  C1B3 00          > DB 0
 27+  C1B4 00          > DB 0
 27+  C1B5 00          > DB 0
 27+  C1B6 00          > DB 0
 27+  C1B7 00          > DB 0
 27+  C1B8 00          > DB 0
 27+  C1B9 00          > DB 0
 27+  C1BA 00          > DB 0
 27+  C1BB 00          > DB 0
 27+  C1BC 00          > DB 0
 27+  C1BD 00          > DB 0
 27+  C1BE 00          > DB 0
 27+  C1BF 00          > DB 0
 27+  C1C0 00          > DB 0
 27+  C1C1 00          > DB 0
 27+  C1C2 00          > DB 0
 27+  C1C3 00          > DB 0
 27+  C1C4 00          > DB 0
 27+  C1C5 00          > DB 0
 27+  C1C6 00          > DB 0
 27+  C1C7 00          > DB 0
 27+  C1C8 00          > DB 0
 27+  C1C9 00          > DB 0
 27+  C1CA 00          > DB 0
 27+  C1CB 00          > DB 0
 27+  C1CC 00          > DB 0
 27+  C1CD 00          > DB 0
 27+  C1CE 00          > DB 0
 27+  C1CF 00          > DB 0
 27+  C1D0 00          > DB 0
 27+  C1D1 00          > DB 0
 27+  C1D2 00          > DB 0
 27+  C1D3 00          > DB 0
 27+  C1D4 00          > DB 0
 27+  C1D5 00          > DB 0
 27+  C1D6 00          > DB 0
 27+  C1D7 00          > DB 0
 27+  C1D8 00          > DB 0
 27+  C1D9 00          > DB 0
 27+  C1DA 00          > DB 0
 27+  C1DB 00          > DB 0
 27+  C1DC 00          > DB 0
 27+  C1DD 00          > DB 0
 27+  C1DE 00          > DB 0
 27+  C1DF 00          > DB 0
 27+  C1E0 00          > DB 0
 27+  C1E1 00          > DB 0
 27+  C1E2 00          > DB 0
 27+  C1E3 00          > DB 0
 27+  C1E4 00          > DB 0
 27+  C1E5 00          > DB 0
 27+  C1E6 00          > DB 0
 27+  C1E7 00          > DB 0
 27+  C1E8 00          > DB 0
 27+  C1E9 00          > DB 0
 27+  C1EA 00          > DB 0
 27+  C1EB 00          > DB 0
 27+  C1EC 00          > DB 0
 27+  C1ED 00          > DB 0
 27+  C1EE 00          > DB 0
 27+  C1EF 00          > DB 0
 27+  C1F0 00          > DB 0
 27+  C1F1 00          > DB 0
 27+  C1F2 00          > DB 0
 27+  C1F3 00          > DB 0
 27+  C1F4 00          > DB 0
 27+  C1F5 00          > DB 0
 27+  C1F6 00          > DB 0
 27+  C1F7 00          > DB 0
 27+  C1F8 00          > DB 0
 27+  C1F9 00          > DB 0
 27+  C1FA 00          > DB 0
 27+  C1FB 00          > DB 0
 27+  C1FC 00          > DB 0
 27+  C1FD 00          > DB 0
 27+  C1FE 00          > DB 0
 27+  C1FF 00          > DB 0
 27+  C200 00          > DB 0
 27+  C201 00          > DB 0
 27+  C202 00          > DB 0
 27+  C203 00          > DB 0
 27+  C204 00          > DB 0
 27+  C205 00          > DB 0
 27+  C206 00          > DB 0
 27+  C207 00          > DB 0
 27+  C208 00          > DB 0
 27+  C209 00          > DB 0
 27+  C20A 00          > DB 0
 27+  C20B 00          > DB 0
 27+  C20C 00          > DB 0
 27+  C20D 00          > DB 0
 27+  C20E 00          > DB 0
 27+  C20F 00          > DB 0
 27+  C210 00          > DB 0
 27+  C211 00          > DB 0
 27+  C212 00          > DB 0
 27+  C213 00          > DB 0
 27+  C214 00          > DB 0
 27+  C215 00          > DB 0
 27+  C216 00          > DB 0
 27+  C217 00          > DB 0
 27+  C218 00          > DB 0
 27+  C219 00          > DB 0
 27+  C21A 00          > DB 0
 27+  C21B 00          > DB 0
 27+  C21C 00          > DB 0
 27+  C21D 00          > DB 0
 27+  C21E 00          > DB 0
 27+  C21F 00          > DB 0
 27+  C220 00          > DB 0
 27+  C221 00          > DB 0
 27+  C222 00          > DB 0
 27+  C223 00          > DB 0
 27+  C224 00          > DB 0
 27+  C225 00          > DB 0
 27+  C226 00          > DB 0
 27+  C227 00          > DB 0
 27+  C228 00          > DB 0
 27+  C229 00          > DB 0
 27+  C22A 00          > DB 0
 27+  C22B 00          > DB 0
 27+  C22C 00          > DB 0
 27+  C22D 00          > DB 0
 27+  C22E 00          > DB 0
 27+  C22F 00          > DB 0
 27+  C230 00          > DB 0
 27+  C231 00          > DB 0
 27+  C232 00          > DB 0
 27+  C233 00          > DB 0
 27+  C234 00          > DB 0
 27+  C235 00          > DB 0
 27+  C236 00          > DB 0
 27+  C237 00          > DB 0
 27+  C238 00          > DB 0
 27+  C239 00          > DB 0
 27+  C23A 00          > DB 0
 27+  C23B 00          > DB 0
 27+  C23C 00          > DB 0
 27+  C23D 00          > DB 0
 27+  C23E 00          > DB 0
 27+  C23F 00          > DB 0
 27+  C240 00          > DB 0
 27+  C241 00          > DB 0
 27+  C242 00          > DB 0
 27+  C243 00          > DB 0
 27+  C244 00          > DB 0
 27+  C245 00          > DB 0
 27+  C246 00          > DB 0
 27+  C247 00          > DB 0
 27+  C248 00          > DB 0
 27+  C249 00          > DB 0
 27+  C24A 00          > DB 0
 27+  C24B 00          > DB 0
 27+  C24C 00          > DB 0
 27+  C24D 00          > DB 0
 27+  C24E 00          > DB 0
 27+  C24F 00          > DB 0
 27+  C250 00          > DB 0
 27+  C251 00          > DB 0
 27+  C252 00          > DB 0
 27+  C253 00          > DB 0
 27+  C254 00          > DB 0
 27+  C255 00          > DB 0
 27+  C256 00          > DB 0
 27+  C257 00          > DB 0
 27+  C258 00          > DB 0
 27+  C259 00          > DB 0
 27+  C25A 00          > DB 0
 27+  C25B 00          > DB 0
 27+  C25C 00          > DB 0
 27+  C25D 00          > DB 0
 27+  C25E 00          > DB 0
 27+  C25F 00          > DB 0
 27+  C260 00          > DB 0
 27+  C261 00          > DB 0
 27+  C262 00          > DB 0
 27+  C263 00          > DB 0
 27+  C264 00          > DB 0
 27+  C265 00          > DB 0
 27+  C266 00          > DB 0
 27+  C267 00          > DB 0
 27+  C268 00          > DB 0
 27+  C269 00          > DB 0
 27+  C26A 00          > DB 0
 27+  C26B 00          > DB 0
 27+  C26C 00          > DB 0
 27+  C26D 00          > DB 0
 27+  C26E 00          > DB 0
 27+  C26F 00          > DB 0
 27+  C270 00          > DB 0
 27+  C271 00          > DB 0
 27+  C272 00          > DB 0
 27+  C273 00          > DB 0
 27+  C274 00          > DB 0
 27+  C275 00          > DB 0
 27+  C276 00          > DB 0
 27+  C277 00          > DB 0
 27+  C278 00          > DB 0
 27+  C279 00          > DB 0
 27+  C27A 00          > DB 0
 27+  C27B 00          > DB 0
 27+  C27C 00          > DB 0
 27+  C27D 00          > DB 0
 27+  C27E 00          > DB 0
 27+  C27F 00          > DB 0
 27+  C280 00          > DB 0
 27+  C281 00          > DB 0
 27+  C282 00          > DB 0
 27+  C283 00          > DB 0
 27+  C284 00          > DB 0
 27+  C285 00          > DB 0
 27+  C286 00          > DB 0
 27+  C287 00          > DB 0
 27+  C288 00          > DB 0
 27+  C289 00          > DB 0
 27+  C28A 00          > DB 0
 27+  C28B 00          > DB 0
 27+  C28C 00          > DB 0
 27+  C28D 00          > DB 0
 27+  C28E 00          > DB 0
 27+  C28F 00          > DB 0
 27+  C290 00          > DB 0
 27+  C291 00          > DB 0
 27+  C292 00          > DB 0
 27+  C293 00          > DB 0
 27+  C294 00          > DB 0
 27+  C295 00          > DB 0
 27+  C296 00          > DB 0
 27+  C297 00          > DB 0
 27+  C298 00          > DB 0
 27+  C299 00          > DB 0
 27+  C29A 00          > DB 0
 27+  C29B 00          > DB 0
 27+  C29C 00          > DB 0
 27+  C29D 00          > DB 0
 27+  C29E 00          > DB 0
 27+  C29F 00          > DB 0
 27+  C2A0 00          > DB 0
 27+  C2A1 00          > DB 0
 27+  C2A2 00          > DB 0
 27+  C2A3 00          > DB 0
 27+  C2A4 00          > DB 0
 27+  C2A5 00          > DB 0
 27+  C2A6 00          > DB 0
 27+  C2A7 00          > DB 0
 27+  C2A8 00          > DB 0
 27+  C2A9 00          > DB 0
 27+  C2AA 00          > DB 0
 27+  C2AB 00          > DB 0
 27+  C2AC 00          > DB 0
 27+  C2AD 00          > DB 0
 27+  C2AE 00          > DB 0
 27+  C2AF 00          > DB 0
 27+  C2B0 00          > DB 0
 27+  C2B1 00          > DB 0
 27+  C2B2 00          > DB 0
 27+  C2B3 00          > DB 0
 27+  C2B4 00          > DB 0
 27+  C2B5 00          > DB 0
 27+  C2B6 00          > DB 0
 27+  C2B7 00          > DB 0
 27+  C2B8 00          > DB 0
 27+  C2B9 00          > DB 0
 27+  C2BA 00          > DB 0
 27+  C2BB 00          > DB 0
 27+  C2BC 00          > DB 0
 27+  C2BD 00          > DB 0
 27+  C2BE 00          > DB 0
 27+  C2BF 00          > DB 0
 27+  C2C0 00          > DB 0
 27+  C2C1 00          > DB 0
 27+  C2C2 00          > DB 0
 27+  C2C3 00          > DB 0
 27+  C2C4 00          > DB 0
 27+  C2C5 00          > DB 0
 27+  C2C6 00          > DB 0
 27+  C2C7 00          > DB 0
 27+  C2C8 00          > DB 0
 27+  C2C9 00          > DB 0
 27+  C2CA 00          > DB 0
 27+  C2CB 00          > DB 0
 27+  C2CC 00          > DB 0
 27+  C2CD 00          > DB 0
 27+  C2CE 00          > DB 0
 27+  C2CF 00          > DB 0
 27+  C2D0 00          > DB 0
 27+  C2D1 00          > DB 0
 27+  C2D2 00          > DB 0
 27+  C2D3 00          > DB 0
 27+  C2D4 00          > DB 0
 27+  C2D5 00          > DB 0
 27+  C2D6 00          > DB 0
 27+  C2D7 00          > DB 0
 27+  C2D8 00          > DB 0
 27+  C2D9 00          > DB 0
 27+  C2DA 00          > DB 0
 27+  C2DB 00          > DB 0
 27+  C2DC 00          > DB 0
 27+  C2DD 00          > DB 0
 27+  C2DE 00          > DB 0
 27+  C2DF 00          > DB 0
 27+  C2E0 00          > DB 0
 27+  C2E1 00          > DB 0
 27+  C2E2 00          > DB 0
 27+  C2E3 00          > DB 0
 27+  C2E4 00          > DB 0
 27+  C2E5 00          > DB 0
 27+  C2E6 00          > DB 0
 27+  C2E7 00          > DB 0
 27+  C2E8 00          > DB 0
 27+  C2E9 00          > DB 0
 27+  C2EA 00          > DB 0
 27+  C2EB 00          > DB 0
 27+  C2EC 00          > DB 0
 27+  C2ED 00          > DB 0
 27+  C2EE 00          > DB 0
 27+  C2EF 00          > DB 0
 27+  C2F0 00          > DB 0
 27+  C2F1 00          > DB 0
 27+  C2F2 00          > DB 0
 27+  C2F3 00          > DB 0
 27+  C2F4 00          > DB 0
 27+  C2F5 00          > DB 0
 27+  C2F6 00          > DB 0
 27+  C2F7 00          > DB 0
 27+  C2F8 00          > DB 0
 27+  C2F9 00          > DB 0
 27+  C2FA 00          > DB 0
 27+  C2FB 00          > DB 0
 27+  C2FC 00          > DB 0
 27+  C2FD 00          > DB 0
 27+  C2FE 00          > DB 0
 27+  C2FF 00          > DB 0
 27+  C300 00          > DB 0
 27+  C301 00          > DB 0
 27+  C302 00          > DB 0
 27+  C303 00          > DB 0
 27+  C304 00          > DB 0
 27+  C305 00          > DB 0
 27+  C306 00          > DB 0
 27+  C307 00          > DB 0
 27+  C308 00          > DB 0
 27+  C309 00          > DB 0
 27+  C30A 00          > DB 0
 27+  C30B 00          > DB 0
 27+  C30C 00          > DB 0
 27+  C30D 00          > DB 0
 27+  C30E 00          > DB 0
 27+  C30F 00          > DB 0
 27+  C310 00          > DB 0
 27+  C311 00          > DB 0
 27+  C312 00          > DB 0
 27+  C313 00          > DB 0
 27+  C314 00          > DB 0
 27+  C315 00          > DB 0
 27+  C316 00          > DB 0
 27+  C317 00          > DB 0
 27+  C318 00          > DB 0
 27+  C319 00          > DB 0
 27+  C31A 00          > DB 0
 27+  C31B 00          > DB 0
 27+  C31C 00          > DB 0
 27+  C31D 00          > DB 0
 27+  C31E 00          > DB 0
 27+  C31F 00          > DB 0
 27+  C320 00          > DB 0
 27+  C321 00          > DB 0
 27+  C322 00          > DB 0
 27+  C323 00          > DB 0
 27+  C324 00          > DB 0
 27+  C325 00          > DB 0
 27+  C326 00          > DB 0
 27+  C327 00          > DB 0
 27+  C328 00          > DB 0
 27+  C329 00          > DB 0
 27+  C32A 00          > DB 0
 27+  C32B 00          > DB 0
 27+  C32C 00          > DB 0
 27+  C32D 00          > DB 0
 27+  C32E 00          > DB 0
 27+  C32F 00          > DB 0
 27+  C330 00          > DB 0
 27+  C331 00          > DB 0
 27+  C332 00          > DB 0
 27+  C333 00          > DB 0
 27+  C334 00          > DB 0
 27+  C335 00          > DB 0
 27+  C336 00          > DB 0
 27+  C337 00          > DB 0
 27+  C338 00          > DB 0
 27+  C339 00          > DB 0
 27+  C33A 00          > DB 0
 27+  C33B 00          > DB 0
 27+  C33C 00          > DB 0
 27+  C33D 00          > DB 0
 27+  C33E 00          > DB 0
 27+  C33F 00          > DB 0
 27+  C340 00          > DB 0
 27+  C341 00          > DB 0
 27+  C342 00          > DB 0
 27+  C343 00          > DB 0
 27+  C344 00          > DB 0
 27+  C345 00          > DB 0
 27+  C346 00          > DB 0
 27+  C347 00          > DB 0
 27+  C348 00          > DB 0
 27+  C349 00          > DB 0
 27+  C34A 00          > DB 0
 27+  C34B 00          > DB 0
 27+  C34C 00          > DB 0
 27+  C34D 00          > DB 0
 27+  C34E 00          > DB 0
 27+  C34F 00          > DB 0
 27+  C350 00          > DB 0
 27+  C351 00          > DB 0
 27+  C352 00          > DB 0
 27+  C353 00          > DB 0
 27+  C354 00          > DB 0
 27+  C355 00          > DB 0
 27+  C356 00          > DB 0
 27+  C357 00          > DB 0
 27+  C358 00          > DB 0
 27+  C359 00          > DB 0
 27+  C35A 00          > DB 0
 27+  C35B 00          > DB 0
 27+  C35C 00          > DB 0
 27+  C35D 00          > DB 0
 27+  C35E 00          > DB 0
 27+  C35F 00          > DB 0
 27+  C360 00          > DB 0
 27+  C361 00          > DB 0
 27+  C362 00          > DB 0
 27+  C363 00          > DB 0
 27+  C364 00          > DB 0
 27+  C365 00          > DB 0
 27+  C366 00          > DB 0
 27+  C367 00          > DB 0
 27+  C368 00          > DB 0
 27+  C369 00          > DB 0
 27+  C36A 00          > DB 0
 27+  C36B 00          > DB 0
 27+  C36C 00          > DB 0
 27+  C36D 00          > DB 0
 27+  C36E 00          > DB 0
 27+  C36F 00          > DB 0
 27+  C370 00          > DB 0
 27+  C371 00          > DB 0
 27+  C372 00          > DB 0
 27+  C373 00          > DB 0
 27+  C374 00          > DB 0
 27+  C375 00          > DB 0
 27+  C376 00          > DB 0
 27+  C377 00          > DB 0
 27+  C378 00          > DB 0
 27+  C379 00          > DB 0
 27+  C37A 00          > DB 0
 27+  C37B 00          > DB 0
 27+  C37C 00          > DB 0
 27+  C37D 00          > DB 0
 27+  C37E 00          > DB 0
 27+  C37F 00          > DB 0
 27+  C380 00          > DB 0
 27+  C381 00          > DB 0
 27+  C382 00          > DB 0
 27+  C383 00          > DB 0
 27+  C384 00          > DB 0
 27+  C385 00          > DB 0
 27+  C386 00          > DB 0
 27+  C387 00          > DB 0
 27+  C388 00          > DB 0
 27+  C389 00          > DB 0
 27+  C38A 00          > DB 0
 27+  C38B 00          > DB 0
 27+  C38C 00          > DB 0
 27+  C38D 00          > DB 0
 27+  C38E 00          > DB 0
 27+  C38F 00          > DB 0
 27+  C390 00          > DB 0
 27+  C391 00          > DB 0
 27+  C392 00          > DB 0
 27+  C393 00          > DB 0
 27+  C394 00          > DB 0
 27+  C395 00          > DB 0
 27+  C396 00          > DB 0
 27+  C397 00          > DB 0
 27+  C398 00          > DB 0
 27+  C399 00          > DB 0
 27+  C39A 00          > DB 0
 27+  C39B 00          > DB 0
 27+  C39C 00          > DB 0
 27+  C39D 00          > DB 0
 27+  C39E 00          > DB 0
 27+  C39F 00          > DB 0
 27+  C3A0 00          > DB 0
 27+  C3A1 00          > DB 0
 27+  C3A2 00          > DB 0
 27+  C3A3 00          > DB 0
 27+  C3A4 00          > DB 0
 27+  C3A5 00          > DB 0
 27+  C3A6 00          > DB 0
 27+  C3A7 00          > DB 0
 27+  C3A8 00          > DB 0
 27+  C3A9 00          > DB 0
 27+  C3AA 00          > DB 0
 27+  C3AB 00          > DB 0
 27+  C3AC 00          > DB 0
 27+  C3AD 00          > DB 0
 27+  C3AE 00          > DB 0
 27+  C3AF 00          > DB 0
 27+  C3B0 00          > DB 0
 27+  C3B1 00          > DB 0
 27+  C3B2 00          > DB 0
 27+  C3B3 00          > DB 0
 27+  C3B4 00          > DB 0
 27+  C3B5 00          > DB 0
 27+  C3B6 00          > DB 0
 27+  C3B7 00          > DB 0
 27+  C3B8 00          > DB 0
 27+  C3B9 00          > DB 0
 27+  C3BA 00          > DB 0
 27+  C3BB 00          > DB 0
 27+  C3BC 00          > DB 0
 27+  C3BD 00          > DB 0
 27+  C3BE 00          > DB 0
 27+  C3BF 00          > DB 0
 27+  C3C0 00          > DB 0
 27+  C3C1 00          > DB 0
 27+  C3C2 00          > DB 0
 27+  C3C3 00          > DB 0
 27+  C3C4 00          > DB 0
 27+  C3C5 00          > DB 0
 27+  C3C6 00          > DB 0
 27+  C3C7 00          > DB 0
 27+  C3C8 00          > DB 0
 27+  C3C9 00          > DB 0
 27+  C3CA 00          > DB 0
 27+  C3CB 00          > DB 0
 27+  C3CC 00          > DB 0
 27+  C3CD 00          > DB 0
 27+  C3CE 00          > DB 0
 27+  C3CF 00          > DB 0
 27+  C3D0 00          > DB 0
 27+  C3D1 00          > DB 0
 27+  C3D2 00          > DB 0
 27+  C3D3 00          > DB 0
 27+  C3D4 00          > DB 0
 27+  C3D5 00          > DB 0
 27+  C3D6 00          > DB 0
 27+  C3D7 00          > DB 0
 27+  C3D8 00          > DB 0
 27+  C3D9 00          > DB 0
 27+  C3DA 00          > DB 0
 27+  C3DB 00          > DB 0
 27+  C3DC 00          > DB 0
 27+  C3DD 00          > DB 0
 27+  C3DE 00          > DB 0
 27+  C3DF 00          > DB 0
 27+  C3E0 00          > DB 0
 27+  C3E1 00          > DB 0
 27+  C3E2 00          > DB 0
 27+  C3E3 00          > DB 0
 27+  C3E4 00          > DB 0
 27+  C3E5 00          > DB 0
 27+  C3E6 00          > DB 0
 27+  C3E7 00          > DB 0
 27+  C3E8 00          > DB 0
 27+  C3E9 00          > DB 0
 27+  C3EA 00          > DB 0
 27+  C3EB 00          > DB 0
 27+  C3EC 00          > DB 0
 27+  C3ED 00          > DB 0
 27+  C3EE 00          > DB 0
 27+  C3EF 00          > DB 0
 27+  C3F0 00          > DB 0
 27+  C3F1 00          > DB 0
 27+  C3F2 00          > DB 0
 27+  C3F3 00          > DB 0
 27+  C3F4 00          > DB 0
 27+  C3F5 00          > DB 0
 27+  C3F6 00          > DB 0
 27+  C3F7 00          > DB 0
 27+  C3F8 00          > DB 0
 27+  C3F9 00          > DB 0
 27+  C3FA 00          > DB 0
 27+  C3FB 00          > DB 0
 27+  C3FC 00          > DB 0
 27+  C3FD 00          > DB 0
 27+  C3FE 00          > DB 0
 27+  C3FF 00          > DB 0
 27+  C400 00          > DB 0
 27+  C401 00          > DB 0
 27+  C402 00          > DB 0
 27+  C403 00          > DB 0
 27+  C404 00          > DB 0
 27+  C405 00          > DB 0
 27+  C406 00          > DB 0
 27+  C407 00          > DB 0
 27+  C408 00          > DB 0
 27+  C409 00          > DB 0
 27+  C40A 00          > DB 0
 27+  C40B 00          > DB 0
 27+  C40C 00          > DB 0
 27+  C40D 00          > DB 0
 27+  C40E 00          > DB 0
 27+  C40F 00          > DB 0
 27+  C410 00          > DB 0
 27+  C411 00          > DB 0
 27+  C412 00          > DB 0
 27+  C413 00          > DB 0
 27+  C414 00          > DB 0
 27+  C415 00          > DB 0
 27+  C416 00          > DB 0
 27+  C417 00          > DB 0
 27+  C418 00          > DB 0
 27+  C419 00          > DB 0
 27+  C41A 00          > DB 0
 27+  C41B 00          > DB 0
 27+  C41C 00          > DB 0
 27+  C41D 00          > DB 0
 27+  C41E 00          > DB 0
 27+  C41F 00          > DB 0
 27+  C420 00          > DB 0
 27+  C421 00          > DB 0
 27+  C422 00          > DB 0
 27+  C423 00          > DB 0
 27+  C424 00          > DB 0
 27+  C425 00          > DB 0
 27+  C426 00          > DB 0
 27+  C427 00          > DB 0
 27+  C428 00          > DB 0
 27+  C429 00          > DB 0
 27+  C42A 00          > DB 0
 27+  C42B 00          > DB 0
 27+  C42C 00          > DB 0
 27+  C42D 00          > DB 0
 27+  C42E 00          > DB 0
 27+  C42F 00          > DB 0
 27+  C430 00          > DB 0
 27+  C431 00          > DB 0
 27+  C432 00          > DB 0
 27+  C433 00          > DB 0
 27+  C434 00          > DB 0
 27+  C435 00          > DB 0
 27+  C436 00          > DB 0
 27+  C437 00          > DB 0
 27+  C438 00          > DB 0
 27+  C439 00          > DB 0
 27+  C43A 00          > DB 0
 27+  C43B 00          > DB 0
 27+  C43C 00          > DB 0
 27+  C43D 00          > DB 0
 27+  C43E 00          > DB 0
 27+  C43F 00          > DB 0
 27+  C440 00          > DB 0
 27+  C441 00          > DB 0
 27+  C442 00          > DB 0
 27+  C443 00          > DB 0
 27+  C444 00          > DB 0
 27+  C445 00          > DB 0
 27+  C446 00          > DB 0
 27+  C447 00          > DB 0
 27+  C448 00          > DB 0
 27+  C449 00          > DB 0
 27+  C44A 00          > DB 0
 27+  C44B 00          > DB 0
 27+  C44C 00          > DB 0
 27+  C44D 00          > DB 0
 27+  C44E 00          > DB 0
 27+  C44F 00          > DB 0
 27+  C450 00          > DB 0
 27+  C451 00          > DB 0
 27+  C452 00          > DB 0
 27+  C453 00          > DB 0
 27+  C454 00          > DB 0
 27+  C455 00          > DB 0
 27+  C456 00          > DB 0
 27+  C457 00          > DB 0
 27+  C458 00          > DB 0
 27+  C459 00          > DB 0
 27+  C45A 00          > DB 0
 27+  C45B 00          > DB 0
 27+  C45C 00          > DB 0
 27+  C45D 00          > DB 0
 27+  C45E 00          > DB 0
 27+  C45F 00          > DB 0
 27+  C460 00          > DB 0
 27+  C461 00          > DB 0
 27+  C462 00          > DB 0
 27+  C463 00          > DB 0
 27+  C464 00          > DB 0
 27+  C465 00          > DB 0
 27+  C466 00          > DB 0
 27+  C467 00          > DB 0
 27+  C468 00          > DB 0
 27+  C469 00          > DB 0
 27+  C46A 00          > DB 0
 27+  C46B 00          > DB 0
 27+  C46C 00          > DB 0
 27+  C46D 00          > DB 0
 27+  C46E 00          > DB 0
 27+  C46F 00          > DB 0
 27+  C470 00          > DB 0
 27+  C471 00          > DB 0
 27+  C472 00          > DB 0
 27+  C473 00          > DB 0
 27+  C474 00          > DB 0
 27+  C475 00          > DB 0
 27+  C476 00          > DB 0
 27+  C477 00          > DB 0
 27+  C478 00          > DB 0
 27+  C479 00          > DB 0
 27+  C47A 00          > DB 0
 27+  C47B 00          > DB 0
 27+  C47C 00          > DB 0
 27+  C47D 00          > DB 0
 27+  C47E 00          > DB 0
 27+  C47F 00          > DB 0
 27+  C480 00          > DB 0
 27+  C481 00          > DB 0
 27+  C482 00          > DB 0
 27+  C483 00          > DB 0
 27+  C484 00          > DB 0
 27+  C485 00          > DB 0
 27+  C486 00          > DB 0
 27+  C487 00          > DB 0
 27+  C488 00          > DB 0
 27+  C489 00          > DB 0
 27+  C48A 00          > DB 0
 27+  C48B 00          > DB 0
 27+  C48C 00          > DB 0
 27+  C48D 00          > DB 0
 27+  C48E 00          > DB 0
 27+  C48F 00          > DB 0
 27+  C490 00          > DB 0
 27+  C491 00          > DB 0
 27+  C492 00          > DB 0
 27+  C493 00          > DB 0
 27+  C494 00          > DB 0
 27+  C495 00          > DB 0
 27+  C496 00          > DB 0
 27+  C497 00          > DB 0
 27+  C498 00          > DB 0
 27+  C499 00          > DB 0
 27+  C49A 00          > DB 0
 27+  C49B 00          > DB 0
 27+  C49C 00          > DB 0
 27+  C49D 00          > DB 0
 27+  C49E 00          > DB 0
 27+  C49F 00          > DB 0
 27+  C4A0 00          > DB 0
 27+  C4A1 00          > DB 0
 27+  C4A2 00          > DB 0
 27+  C4A3 00          > DB 0
 27+  C4A4 00          > DB 0
 27+  C4A5 00          > DB 0
 27+  C4A6 00          > DB 0
 27+  C4A7 00          > DB 0
 27+  C4A8 00          > DB 0
 27+  C4A9 00          > DB 0
 27+  C4AA 00          > DB 0
 27+  C4AB 00          > DB 0
 27+  C4AC 00          > DB 0
 27+  C4AD 00          > DB 0
 27+  C4AE 00          > DB 0
 27+  C4AF 00          > DB 0
 27+  C4B0 00          > DB 0
 27+  C4B1 00          > DB 0
 27+  C4B2 00          > DB 0
 27+  C4B3 00          > DB 0
 27+  C4B4 00          > DB 0
 27+  C4B5 00          > DB 0
 27+  C4B6 00          > DB 0
 27+  C4B7 00          > DB 0
 27+  C4B8 00          > DB 0
 27+  C4B9 00          > DB 0
 27+  C4BA 00          > DB 0
 27+  C4BB 00          > DB 0
 27+  C4BC 00          > DB 0
 27+  C4BD 00          > DB 0
 27+  C4BE 00          > DB 0
 27+  C4BF 00          > DB 0
 27+  C4C0 00          > DB 0
 27+  C4C1 00          > DB 0
 27+  C4C2 00          > DB 0
 27+  C4C3 00          > DB 0
 27+  C4C4 00          > DB 0
 27+  C4C5 00          > DB 0
 27+  C4C6 00          > DB 0
 27+  C4C7 00          > DB 0
 27+  C4C8 00          > DB 0
 27+  C4C9 00          > DB 0
 27+  C4CA 00          > DB 0
 27+  C4CB 00          > DB 0
 27+  C4CC 00          > DB 0
 27+  C4CD 00          > DB 0
 27+  C4CE 00          > DB 0
 27+  C4CF 00          > DB 0
 27+  C4D0 00          > DB 0
 27+  C4D1 00          > DB 0
 27+  C4D2 00          > DB 0
 27+  C4D3 00          > DB 0
 27+  C4D4 00          > DB 0
 27+  C4D5 00          > DB 0
 27+  C4D6 00          > DB 0
 27+  C4D7 00          > DB 0
 27+  C4D8 00          > DB 0
 27+  C4D9 00          > DB 0
 27+  C4DA 00          > DB 0
 27+  C4DB 00          > DB 0
 27+  C4DC 00          > DB 0
 27+  C4DD 00          > DB 0
 27+  C4DE 00          > DB 0
 27+  C4DF 00          > DB 0
 27+  C4E0 00          > DB 0
 27+  C4E1 00          > DB 0
 27+  C4E2 00          > DB 0
 27+  C4E3 00          > DB 0
 27+  C4E4 00          > DB 0
 27+  C4E5 00          > DB 0
 27+  C4E6 00          > DB 0
 27+  C4E7 00          > DB 0
 27+  C4E8 00          > DB 0
 27+  C4E9 00          > DB 0
 27+  C4EA 00          > DB 0
 27+  C4EB 00          > DB 0
 27+  C4EC 00          > DB 0
 27+  C4ED 00          > DB 0
 27+  C4EE 00          > DB 0
 27+  C4EF 00          > DB 0
 27+  C4F0 00          > DB 0
 27+  C4F1 00          > DB 0
 27+  C4F2 00          > DB 0
 27+  C4F3 00          > DB 0
 27+  C4F4 00          > DB 0
 27+  C4F5 00          > DB 0
 27+  C4F6 00          > DB 0
 27+  C4F7 00          > DB 0
 27+  C4F8 00          > DB 0
 27+  C4F9 00          > DB 0
 27+  C4FA 00          > DB 0
 27+  C4FB 00          > DB 0
 27+  C4FC 00          > DB 0
 27+  C4FD 00          > DB 0
 27+  C4FE 00          > DB 0
 27+  C4FF 00          > DB 0
 27+  C500 00          > DB 0
 27+  C501 00          > DB 0
 27+  C502 00          > DB 0
 27+  C503 00          > DB 0
 27+  C504 00          > DB 0
 27+  C505 00          > DB 0
 27+  C506 00          > DB 0
 27+  C507 00          > DB 0
 27+  C508 00          > DB 0
 27+  C509 00          > DB 0
 27+  C50A 00          > DB 0
 27+  C50B 00          > DB 0
 27+  C50C 00          > DB 0
 27+  C50D 00          > DB 0
 27+  C50E 00          > DB 0
 27+  C50F 00          > DB 0
 27+  C510 00          > DB 0
 27+  C511 00          > DB 0
 27+  C512 00          > DB 0
 27+  C513 00          > DB 0
 27+  C514 00          > DB 0
 27+  C515 00          > DB 0
 27+  C516 00          > DB 0
 27+  C517 00          > DB 0
 27+  C518 00          > DB 0
 27+  C519 00          > DB 0
 27+  C51A 00          > DB 0
 27+  C51B 00          > DB 0
 27+  C51C 00          > DB 0
 27+  C51D 00          > DB 0
 27+  C51E 00          > DB 0
 27+  C51F 00          > DB 0
 27+  C520 00          > DB 0
 27+  C521 00          > DB 0
 27+  C522 00          > DB 0
 27+  C523 00          > DB 0
 27+  C524 00          > DB 0
 27+  C525 00          > DB 0
 27+  C526 00          > DB 0
 27+  C527 00          > DB 0
 27+  C528 00          > DB 0
 27+  C529 00          > DB 0
 27+  C52A 00          > DB 0
 27+  C52B 00          > DB 0
 27+  C52C 00          > DB 0
 27+  C52D 00          > DB 0
 27+  C52E 00          > DB 0
 27+  C52F 00          > DB 0
 27+  C530 00          > DB 0
 27+  C531 00          > DB 0
 27+  C532 00          > DB 0
 27+  C533 00          > DB 0
 27+  C534 00          > DB 0
 27+  C535 00          > DB 0
 27+  C536 00          > DB 0
 27+  C537 00          > DB 0
 27+  C538 00          > DB 0
 27+  C539 00          > DB 0
 27+  C53A 00          > DB 0
 27+  C53B 00          > DB 0
 27+  C53C 00          > DB 0
 27+  C53D 00          > DB 0
 27+  C53E 00          > DB 0
 27+  C53F 00          > DB 0
 27+  C540 00          > DB 0
 27+  C541 00          > DB 0
 27+  C542 00          > DB 0
 27+  C543 00          > DB 0
 27+  C544 00          > DB 0
 27+  C545 00          > DB 0
 27+  C546 00          > DB 0
 27+  C547 00          > DB 0
 27+  C548 00          > DB 0
 27+  C549 00          > DB 0
 27+  C54A 00          > DB 0
 27+  C54B 00          > DB 0
 27+  C54C 00          > DB 0
 27+  C54D 00          > DB 0
 27+  C54E 00          > DB 0
 27+  C54F 00          > DB 0
 27+  C550 00          > DB 0
 27+  C551 00          > DB 0
 27+  C552 00          > DB 0
 27+  C553 00          > DB 0
 27+  C554 00          > DB 0
 27+  C555 00          > DB 0
 27+  C556 00          > DB 0
 27+  C557 00          > DB 0
 27+  C558 00          > DB 0
 27+  C559 00          > DB 0
 27+  C55A 00          > DB 0
 27+  C55B 00          > DB 0
 27+  C55C 00          > DB 0
 27+  C55D 00          > DB 0
 27+  C55E 00          > DB 0
 27+  C55F 00          > DB 0
 27+  C560 00          > DB 0
 27+  C561 00          > DB 0
 27+  C562 00          > DB 0
 27+  C563 00          > DB 0
 27+  C564 00          > DB 0
 27+  C565 00          > DB 0
 27+  C566 00          > DB 0
 27+  C567 00          > DB 0
 27+  C568 00          > DB 0
 27+  C569 00          > DB 0
 27+  C56A 00          > DB 0
 27+  C56B 00          > DB 0
 27+  C56C 00          > DB 0
 27+  C56D 00          > DB 0
 27+  C56E 00          > DB 0
 27+  C56F 00          > DB 0
 27+  C570 00          > DB 0
 27+  C571 00          > DB 0
 27+  C572 00          > DB 0
 27+  C573 00          > DB 0
 27+  C574 00          > DB 0
 27+  C575 00          > DB 0
 27+  C576 00          > DB 0
 27+  C577 00          > DB 0
 27+  C578 00          > DB 0
 27+  C579 00          > DB 0
 27+  C57A 00          > DB 0
 27+  C57B 00          > DB 0
 27+  C57C 00          > DB 0
 27+  C57D 00          > DB 0
 27+  C57E 00          > DB 0
 27+  C57F 00          > DB 0
 27+  C580 00          > DB 0
 27+  C581 00          > DB 0
 27+  C582 00          > DB 0
 27+  C583 00          > DB 0
 27+  C584 00          > DB 0
 27+  C585 00          > DB 0
 27+  C586 00          > DB 0
 27+  C587 00          > DB 0
 27+  C588 00          > DB 0
 27+  C589 00          > DB 0
 27+  C58A 00          > DB 0
 27+  C58B 00          > DB 0
 27+  C58C 00          > DB 0
 27+  C58D 00          > DB 0
 27+  C58E 00          > DB 0
 27+  C58F 00          > DB 0
 27+  C590 00          > DB 0
 27+  C591 00          > DB 0
 27+  C592 00          > DB 0
 27+  C593 00          > DB 0
 27+  C594 00          > DB 0
 27+  C595 00          > DB 0
 27+  C596 00          > DB 0
 27+  C597 00          > DB 0
 27+  C598 00          > DB 0
 27+  C599 00          > DB 0
 27+  C59A 00          > DB 0
 27+  C59B 00          > DB 0
 27+  C59C 00          > DB 0
 27+  C59D 00          > DB 0
 27+  C59E 00          > DB 0
 27+  C59F 00          > DB 0
 27+  C5A0 00          > DB 0
 27+  C5A1 00          > DB 0
 27+  C5A2 00          > DB 0
 27+  C5A3 00          > DB 0
 27+  C5A4 00          > DB 0
 27+  C5A5 00          > DB 0
 27+  C5A6 00          > DB 0
 27+  C5A7 00          > DB 0
 27+  C5A8 00          > DB 0
 27+  C5A9 00          > DB 0
 27+  C5AA 00          > DB 0
 27+  C5AB 00          > DB 0
 27+  C5AC 00          > DB 0
 27+  C5AD 00          > DB 0
 27+  C5AE 00          > DB 0
 27+  C5AF 00          > DB 0
 27+  C5B0 00          > DB 0
 27+  C5B1 00          > DB 0
 27+  C5B2 00          > DB 0
 27+  C5B3 00          > DB 0
 27+  C5B4 00          > DB 0
 27+  C5B5 00          > DB 0
 27+  C5B6 00          > DB 0
 27+  C5B7 00          > DB 0
 27+  C5B8 00          > DB 0
 27+  C5B9 00          > DB 0
 27+  C5BA 00          > DB 0
 27+  C5BB 00          > DB 0
 27+  C5BC 00          > DB 0
 27+  C5BD 00          > DB 0
 27+  C5BE 00          > DB 0
 27+  C5BF 00          > DB 0
 27+  C5C0 00          > DB 0
 27+  C5C1 00          > DB 0
 27+  C5C2 00          > DB 0
 27+  C5C3 00          > DB 0
 27+  C5C4 00          > DB 0
 27+  C5C5 00          > DB 0
 27+  C5C6 00          > DB 0
 27+  C5C7 00          > DB 0
 27+  C5C8 00          > DB 0
 27+  C5C9 00          > DB 0
 27+  C5CA 00          > DB 0
 27+  C5CB 00          > DB 0
 27+  C5CC 00          > DB 0
 27+  C5CD 00          > DB 0
 27+  C5CE 00          > DB 0
 27+  C5CF 00          > DB 0
 27+  C5D0 00          > DB 0
 27+  C5D1 00          > DB 0
 27+  C5D2 00          > DB 0
 27+  C5D3 00          > DB 0
 27+  C5D4 00          > DB 0
 27+  C5D5 00          > DB 0
 27+  C5D6 00          > DB 0
 27+  C5D7 00          > DB 0
 27+  C5D8 00          > DB 0
 27+  C5D9 00          > DB 0
 27+  C5DA 00          > DB 0
 27+  C5DB 00          > DB 0
 27+  C5DC 00          > DB 0
 27+  C5DD 00          > DB 0
 27+  C5DE 00          > DB 0
 27+  C5DF 00          > DB 0
 27+  C5E0 00          > DB 0
 27+  C5E1 00          > DB 0
 27+  C5E2 00          > DB 0
 27+  C5E3 00          > DB 0
 27+  C5E4 00          > DB 0
 27+  C5E5 00          > DB 0
 27+  C5E6 00          > DB 0
 27+  C5E7 00          > DB 0
 27+  C5E8 00          > DB 0
 27+  C5E9 00          > DB 0
 27+  C5EA 00          > DB 0
 27+  C5EB 00          > DB 0
 27+  C5EC 00          > DB 0
 27+  C5ED 00          > DB 0
 27+  C5EE 00          > DB 0
 27+  C5EF 00          > DB 0
 27+  C5F0 00          > DB 0
 27+  C5F1 00          > DB 0
 27+  C5F2 00          > DB 0
 27+  C5F3 00          > DB 0
 27+  C5F4 00          > DB 0
 27+  C5F5 00          > DB 0
 27+  C5F6 00          > DB 0
 27+  C5F7 00          > DB 0
 27+  C5F8 00          > DB 0
 27+  C5F9 00          > DB 0
 27+  C5FA 00          > DB 0
 27+  C5FB 00          > DB 0
 27+  C5FC 00          > DB 0
 27+  C5FD 00          > DB 0
 27+  C5FE 00          > DB 0
 27+  C5FF 00          > DB 0
 27+  C600 00          > DB 0
 27+  C601 00          > DB 0
 27+  C602 00          > DB 0
 27+  C603 00          > DB 0
 27+  C604 00          > DB 0
 27+  C605 00          > DB 0
 27+  C606 00          > DB 0
 27+  C607 00          > DB 0
 27+  C608 00          > DB 0
 27+  C609 00          > DB 0
 27+  C60A 00          > DB 0
 27+  C60B 00          > DB 0
 27+  C60C 00          > DB 0
 27+  C60D 00          > DB 0
 27+  C60E 00          > DB 0
 27+  C60F 00          > DB 0
 27+  C610 00          > DB 0
 27+  C611 00          > DB 0
 27+  C612 00          > DB 0
 27+  C613 00          > DB 0
 27+  C614 00          > DB 0
 27+  C615 00          > DB 0
 27+  C616 00          > DB 0
 27+  C617 00          > DB 0
 27+  C618 00          > DB 0
 27+  C619 00          > DB 0
 27+  C61A 00          > DB 0
 27+  C61B 00          > DB 0
 27+  C61C 00          > DB 0
 27+  C61D 00          > DB 0
 27+  C61E 00          > DB 0
 27+  C61F 00          > DB 0
 27+  C620 00          > DB 0
 27+  C621 00          > DB 0
 27+  C622 00          > DB 0
 27+  C623 00          > DB 0
 27+  C624 00          > DB 0
 27+  C625 00          > DB 0
 27+  C626 00          > DB 0
 27+  C627 00          > DB 0
 27+  C628 00          > DB 0
 27+  C629 00          > DB 0
 27+  C62A 00          > DB 0
 27+  C62B 00          > DB 0
 27+  C62C 00          > DB 0
 27+  C62D 00          > DB 0
 27+  C62E 00          > DB 0
 27+  C62F 00          > DB 0
 27+  C630 00          > DB 0
 27+  C631 00          > DB 0
 27+  C632 00          > DB 0
 27+  C633 00          > DB 0
 27+  C634 00          > DB 0
 27+  C635 00          > DB 0
 27+  C636 00          > DB 0
 27+  C637 00          > DB 0
 27+  C638 00          > DB 0
 27+  C639 00          > DB 0
 27+  C63A 00          > DB 0
 27+  C63B 00          > DB 0
 27+  C63C 00          > DB 0
 27+  C63D 00          > DB 0
 27+  C63E 00          > DB 0
 27+  C63F 00          > DB 0
 27+  C640 00          > DB 0
 27+  C641 00          > DB 0
 27+  C642 00          > DB 0
 27+  C643 00          > DB 0
 27+  C644 00          > DB 0
 27+  C645 00          > DB 0
 27+  C646 00          > DB 0
 27+  C647 00          > DB 0
 27+  C648 00          > DB 0
 27+  C649 00          > DB 0
 27+  C64A 00          > DB 0
 27+  C64B 00          > DB 0
 27+  C64C 00          > DB 0
 27+  C64D 00          > DB 0
 27+  C64E 00          > DB 0
 27+  C64F 00          > DB 0
 27+  C650 00          > DB 0
 27+  C651 00          > DB 0
 27+  C652 00          > DB 0
 27+  C653 00          > DB 0
 27+  C654 00          > DB 0
 27+  C655 00          > DB 0
 27+  C656 00          > DB 0
 27+  C657 00          > DB 0
 27+  C658 00          > DB 0
 27+  C659 00          > DB 0
 27+  C65A 00          > DB 0
 27+  C65B 00          > DB 0
 27+  C65C 00          > DB 0
 27+  C65D 00          > DB 0
 27+  C65E 00          > DB 0
 27+  C65F 00          > DB 0
 27+  C660 00          > DB 0
 27+  C661 00          > DB 0
 27+  C662 00          > DB 0
 27+  C663 00          > DB 0
 27+  C664 00          > DB 0
 27+  C665 00          > DB 0
 27+  C666 00          > DB 0
 27+  C667 00          > DB 0
 27+  C668 00          > DB 0
 27+  C669 00          > DB 0
 27+  C66A 00          > DB 0
 27+  C66B 00          > DB 0
 27+  C66C 00          > DB 0
 27+  C66D 00          > DB 0
 27+  C66E 00          > DB 0
 27+  C66F 00          > DB 0
 27+  C670 00          > DB 0
 27+  C671 00          > DB 0
 27+  C672 00          > DB 0
 27+  C673 00          > DB 0
 27+  C674 00          > DB 0
 27+  C675 00          > DB 0
 27+  C676 00          > DB 0
 27+  C677 00          > DB 0
 27+  C678 00          > DB 0
 27+  C679 00          > DB 0
 27+  C67A 00          > DB 0
 27+  C67B 00          > DB 0
 27+  C67C 00          > DB 0
 27+  C67D 00          > DB 0
 27+  C67E 00          > DB 0
 27+  C67F 00          > DB 0
 27+  C680 00          > DB 0
 27+  C681 00          > DB 0
 27+  C682 00          > DB 0
 27+  C683 00          > DB 0
 27+  C684 00          > DB 0
 27+  C685 00          > DB 0
 27+  C686 00          > DB 0
 27+  C687 00          > DB 0
 27+  C688 00          > DB 0
 27+  C689 00          > DB 0
 27+  C68A 00          > DB 0
 27+  C68B 00          > DB 0
 27+  C68C 00          > DB 0
 27+  C68D 00          > DB 0
 27+  C68E 00          > DB 0
 27+  C68F 00          > DB 0
 27+  C690 00          > DB 0
 27+  C691 00          > DB 0
 27+  C692 00          > DB 0
 27+  C693 00          > DB 0
 27+  C694 00          > DB 0
 27+  C695 00          > DB 0
 27+  C696 00          > DB 0
 27+  C697 00          > DB 0
 27+  C698 00          > DB 0
 27+  C699 00          > DB 0
 27+  C69A 00          > DB 0
 27+  C69B 00          > DB 0
 27+  C69C 00          > DB 0
 27+  C69D 00          > DB 0
 27+  C69E 00          > DB 0
 27+  C69F 00          > DB 0
 27+  C6A0 00          > DB 0
 27+  C6A1 00          > DB 0
 27+  C6A2 00          > DB 0
 27+  C6A3 00          > DB 0
 27+  C6A4 00          > DB 0
 27+  C6A5 00          > DB 0
 27+  C6A6 00          > DB 0
 27+  C6A7 00          > DB 0
 27+  C6A8 00          > DB 0
 27+  C6A9 00          > DB 0
 27+  C6AA 00          > DB 0
 27+  C6AB 00          > DB 0
 27+  C6AC 00          > DB 0
 27+  C6AD 00          > DB 0
 27+  C6AE 00          > DB 0
 27+  C6AF 00          > DB 0
 27+  C6B0 00          > DB 0
 27+  C6B1 00          > DB 0
 27+  C6B2 00          > DB 0
 27+  C6B3 00          > DB 0
 27+  C6B4 00          > DB 0
 27+  C6B5 00          > DB 0
 27+  C6B6 00          > DB 0
 27+  C6B7 00          > DB 0
 27+  C6B8 00          > DB 0
 27+  C6B9 00          > DB 0
 27+  C6BA 00          > DB 0
 27+  C6BB 00          > DB 0
 27+  C6BC 00          > DB 0
 27+  C6BD 00          > DB 0
 27+  C6BE 00          > DB 0
 27+  C6BF 00          > DB 0
 27+  C6C0 00          > DB 0
 27+  C6C1 00          > DB 0
 27+  C6C2 00          > DB 0
 27+  C6C3 00          > DB 0
 27+  C6C4 00          > DB 0
 27+  C6C5 00          > DB 0
 27+  C6C6 00          > DB 0
 27+  C6C7 00          > DB 0
 27+  C6C8 00          > DB 0
 27+  C6C9 00          > DB 0
 27+  C6CA 00          > DB 0
 27+  C6CB 00          > DB 0
 27+  C6CC 00          > DB 0
 27+  C6CD 00          > DB 0
 27+  C6CE 00          > DB 0
 27+  C6CF 00          > DB 0
 27+  C6D0 00          > DB 0
 27+  C6D1 00          > DB 0
 27+  C6D2 00          > DB 0
 27+  C6D3 00          > DB 0
 27+  C6D4 00          > DB 0
 27+  C6D5 00          > DB 0
 27+  C6D6 00          > DB 0
 27+  C6D7 00          > DB 0
 27+  C6D8 00          > DB 0
 27+  C6D9 00          > DB 0
 27+  C6DA 00          > DB 0
 27+  C6DB 00          > DB 0
 27+  C6DC 00          > DB 0
 27+  C6DD 00          > DB 0
 27+  C6DE 00          > DB 0
 27+  C6DF 00          > DB 0
 27+  C6E0 00          > DB 0
 27+  C6E1 00          > DB 0
 27+  C6E2 00          > DB 0
 27+  C6E3 00          > DB 0
 27+  C6E4 00          > DB 0
 27+  C6E5 00          > DB 0
 27+  C6E6 00          > DB 0
 27+  C6E7 00          > DB 0
 27+  C6E8 00          > DB 0
 27+  C6E9 00          > DB 0
 27+  C6EA 00          > DB 0
 27+  C6EB 00          > DB 0
 27+  C6EC 00          > DB 0
 27+  C6ED 00          > DB 0
 27+  C6EE 00          > DB 0
 27+  C6EF 00          > DB 0
 27+  C6F0 00          > DB 0
 27+  C6F1 00          > DB 0
 27+  C6F2 00          > DB 0
 27+  C6F3 00          > DB 0
 27+  C6F4 00          > DB 0
 27+  C6F5 00          > DB 0
 27+  C6F6 00          > DB 0
 27+  C6F7 00          > DB 0
 27+  C6F8 00          > DB 0
 27+  C6F9 00          > DB 0
 27+  C6FA 00          > DB 0
 27+  C6FB 00          > DB 0
 27+  C6FC 00          > DB 0
 27+  C6FD 00          > DB 0
 27+  C6FE 00          > DB 0
 27+  C6FF 00          > DB 0
 27+  C700 00          > DB 0
 27+  C701 00          > DB 0
 27+  C702 00          > DB 0
 27+  C703 00          > DB 0
 27+  C704 00          > DB 0
 27+  C705 00          > DB 0
 27+  C706 00          > DB 0
 27+  C707 00          > DB 0
 27+  C708 00          > DB 0
 27+  C709 00          > DB 0
 27+  C70A 00          > DB 0
 27+  C70B 00          > DB 0
 27+  C70C 00          > DB 0
 27+  C70D 00          > DB 0
 27+  C70E 00          > DB 0
 27+  C70F 00          > DB 0
 27+  C710 00          > DB 0
 27+  C711 00          > DB 0
 27+  C712 00          > DB 0
 27+  C713 00          > DB 0
 27+  C714 00          > DB 0
 27+  C715 00          > DB 0
 27+  C716 00          > DB 0
 27+  C717 00          > DB 0
 27+  C718 00          > DB 0
 27+  C719 00          > DB 0
 27+  C71A 00          > DB 0
 27+  C71B 00          > DB 0
 27+  C71C 00          > DB 0
 27+  C71D 00          > DB 0
 27+  C71E 00          > DB 0
 27+  C71F 00          > DB 0
 27+  C720 00          > DB 0
 27+  C721 00          > DB 0
 27+  C722 00          > DB 0
 27+  C723 00          > DB 0
 27+  C724 00          > DB 0
 27+  C725 00          > DB 0
 27+  C726 00          > DB 0
 27+  C727 00          > DB 0
 27+  C728 00          > DB 0
 27+  C729 00          > DB 0
 27+  C72A 00          > DB 0
 27+  C72B 00          > DB 0
 27+  C72C 00          > DB 0
 27+  C72D 00          > DB 0
 27+  C72E 00          > DB 0
 27+  C72F 00          > DB 0
 27+  C730 00          > DB 0
 27+  C731 00          > DB 0
 27+  C732 00          > DB 0
 27+  C733 00          > DB 0
 27+  C734 00          > DB 0
 27+  C735 00          > DB 0
 27+  C736 00          > DB 0
 27+  C737 00          > DB 0
 27+  C738 00          > DB 0
 27+  C739 00          > DB 0
 27+  C73A 00          > DB 0
 27+  C73B 00          > DB 0
 27+  C73C 00          > DB 0
 27+  C73D 00          > DB 0
 27+  C73E 00          > DB 0
 27+  C73F 00          > DB 0
 27+  C740 00          > DB 0
 27+  C741 00          > DB 0
 27+  C742 00          > DB 0
 27+  C743 00          > DB 0
 27+  C744 00          > DB 0
 27+  C745 00          > DB 0
 27+  C746 00          > DB 0
 27+  C747 00          > DB 0
 27+  C748 00          > DB 0
 27+  C749 00          > DB 0
 27+  C74A 00          > DB 0
 27+  C74B 00          > DB 0
 27+  C74C 00          > DB 0
 27+  C74D 00          > DB 0
 27+  C74E 00          > DB 0
 27+  C74F 00          > DB 0
 27+  C750 00          > DB 0
 27+  C751 00          > DB 0
 27+  C752 00          > DB 0
 27+  C753 00          > DB 0
 27+  C754 00          > DB 0
 27+  C755 00          > DB 0
 27+  C756 00          > DB 0
 27+  C757 00          > DB 0
 27+  C758 00          > DB 0
 27+  C759 00          > DB 0
 27+  C75A 00          > DB 0
 27+  C75B 00          > DB 0
 27+  C75C 00          > DB 0
 27+  C75D 00          > DB 0
 27+  C75E 00          > DB 0
 27+  C75F 00          > DB 0
 27+  C760 00          > DB 0
 27+  C761 00          > DB 0
 27+  C762 00          > DB 0
 27+  C763 00          > DB 0
 27+  C764 00          > DB 0
 27+  C765 00          > DB 0
 27+  C766 00          > DB 0
 27+  C767 00          > DB 0
 27+  C768 00          > DB 0
 27+  C769 00          > DB 0
 27+  C76A 00          > DB 0
 27+  C76B 00          > DB 0
 27+  C76C 00          > DB 0
 27+  C76D 00          > DB 0
 27+  C76E 00          > DB 0
 27+  C76F 00          > DB 0
 27+  C770 00          > DB 0
 27+  C771 00          > DB 0
 27+  C772 00          > DB 0
 27+  C773 00          > DB 0
 27+  C774 00          > DB 0
 27+  C775 00          > DB 0
 27+  C776 00          > DB 0
 27+  C777 00          > DB 0
 27+  C778 00          > DB 0
 27+  C779 00          > DB 0
 27+  C77A 00          > DB 0
 27+  C77B 00          > DB 0
 27+  C77C 00          > DB 0
 27+  C77D 00          > DB 0
 27+  C77E 00          > DB 0
 27+  C77F 00          > DB 0
 27+  C780 00          > DB 0
 27+  C781 00          > DB 0
 27+  C782 00          > DB 0
 27+  C783 00          > DB 0
 27+  C784 00          > DB 0
 27+  C785 00          > DB 0
 27+  C786 00          > DB 0
 27+  C787 00          > DB 0
 27+  C788 00          > DB 0
 27+  C789 00          > DB 0
 27+  C78A 00          > DB 0
 27+  C78B 00          > DB 0
 27+  C78C 00          > DB 0
 27+  C78D 00          > DB 0
 27+  C78E 00          > DB 0
 27+  C78F 00          > DB 0
 27+  C790 00          > DB 0
 27+  C791 00          > DB 0
 27+  C792 00          > DB 0
 27+  C793 00          > DB 0
 27+  C794 00          > DB 0
 27+  C795 00          > DB 0
 27+  C796 00          > DB 0
 27+  C797 00          > DB 0
 27+  C798 00          > DB 0
 27+  C799 00          > DB 0
 27+  C79A 00          > DB 0
 27+  C79B 00          > DB 0
 27+  C79C 00          > DB 0
 27+  C79D 00          > DB 0
 27+  C79E 00          > DB 0
 27+  C79F 00          > DB 0
 27+  C7A0 00          > DB 0
 27+  C7A1 00          > DB 0
 27+  C7A2 00          > DB 0
 27+  C7A3 00          > DB 0
 27+  C7A4 00          > DB 0
 27+  C7A5 00          > DB 0
 27+  C7A6 00          > DB 0
 27+  C7A7 00          > DB 0
 27+  C7A8 00          > DB 0
 27+  C7A9 00          > DB 0
 27+  C7AA 00          > DB 0
 27+  C7AB 00          > DB 0
 27+  C7AC 00          > DB 0
 27+  C7AD 00          > DB 0
 27+  C7AE 00          > DB 0
 27+  C7AF 00          > DB 0
 27+  C7B0 00          > DB 0
 27+  C7B1 00          > DB 0
 27+  C7B2 00          > DB 0
 27+  C7B3 00          > DB 0
 27+  C7B4 00          > DB 0
 27+  C7B5 00          > DB 0
 27+  C7B6 00          > DB 0
 27+  C7B7 00          > DB 0
 27+  C7B8 00          > DB 0
 27+  C7B9 00          > DB 0
 27+  C7BA 00          > DB 0
 27+  C7BB 00          > DB 0
 27+  C7BC 00          > DB 0
 27+  C7BD 00          > DB 0
 27+  C7BE 00          > DB 0
 27+  C7BF 00          > DB 0
 27+  C7C0 00          > DB 0
 27+  C7C1 00          > DB 0
 27+  C7C2 00          > DB 0
 27+  C7C3 00          > DB 0
 27+  C7C4 00          > DB 0
 27+  C7C5 00          > DB 0
 27+  C7C6 00          > DB 0
 27+  C7C7 00          > DB 0
 27+  C7C8 00          > DB 0
 27+  C7C9 00          > DB 0
 27+  C7CA 00          > DB 0
 27+  C7CB 00          > DB 0
 27+  C7CC 00          > DB 0
 27+  C7CD 00          > DB 0
 27+  C7CE 00          > DB 0
 27+  C7CF 00          > DB 0
 27+  C7D0 00          > DB 0
 27+  C7D1 00          > DB 0
 27+  C7D2 00          > DB 0
 27+  C7D3 00          > DB 0
 27+  C7D4 00          > DB 0
 27+  C7D5 00          > DB 0
 27+  C7D6 00          > DB 0
 27+  C7D7 00          > DB 0
 27+  C7D8 00          > DB 0
 27+  C7D9 00          > DB 0
 27+  C7DA 00          > DB 0
 27+  C7DB 00          > DB 0
 27+  C7DC 00          > DB 0
 27+  C7DD 00          > DB 0
 27+  C7DE 00          > DB 0
 27+  C7DF 00          > DB 0
 27+  C7E0 00          > DB 0
 27+  C7E1 00          > DB 0
 27+  C7E2 00          > DB 0
 27+  C7E3 00          > DB 0
 27+  C7E4 00          > DB 0
 27+  C7E5 00          > DB 0
 27+  C7E6 00          > DB 0
 27+  C7E7 00          > DB 0
 27+  C7E8 00          > DB 0
 27+  C7E9 00          > DB 0
 27+  C7EA 00          > DB 0
 27+  C7EB 00          > DB 0
 27+  C7EC 00          > DB 0
 27+  C7ED 00          > DB 0
 27+  C7EE 00          > DB 0
 27+  C7EF 00          > DB 0
 27+  C7F0 00          > DB 0
 27+  C7F1 00          > DB 0
 27+  C7F2 00          > DB 0
 27+  C7F3 00          > DB 0
 27+  C7F4 00          > DB 0
 27+  C7F5 00          > DB 0
 27+  C7F6 00          > DB 0
 27+  C7F7 00          > DB 0
 27+  C7F8 00          > DB 0
 27+  C7F9 00          > DB 0
 27+  C7FA 00          > DB 0
 27+  C7FB 00          > DB 0
 27+  C7FC 00          > DB 0
 27+  C7FD 00          > DB 0
 27+  C7FE 00          > DB 0
 27+  C7FF 00          > DB 0
 27+  C800 00          > DB 0
 27+  C801 00          > DB 0
 27+  C802 00          > DB 0
 27+  C803 00          > DB 0
 27+  C804 00          > DB 0
 27+  C805 00          > DB 0
 27+  C806 00          > DB 0
 27+  C807 00          > DB 0
 27+  C808 00          > DB 0
 27+  C809 00          > DB 0
 27+  C80A 00          > DB 0
 27+  C80B 00          > DB 0
 27+  C80C 00          > DB 0
 27+  C80D 00          > DB 0
 27+  C80E 00          > DB 0
 27+  C80F 00          > DB 0
 27+  C810 00          > DB 0
 27+  C811 00          > DB 0
 27+  C812 00          > DB 0
 27+  C813 00          > DB 0
 27+  C814 00          > DB 0
 27+  C815 00          > DB 0
 27+  C816 00          > DB 0
 27+  C817 00          > DB 0
 27+  C818 00          > DB 0
 27+  C819 00          > DB 0
 27+  C81A 00          > DB 0
 27+  C81B 00          > DB 0
 27+  C81C 00          > DB 0
 27+  C81D 00          > DB 0
 27+  C81E 00          > DB 0
 27+  C81F 00          > DB 0
 27+  C820 00          > DB 0
 27+  C821 00          > DB 0
 27+  C822 00          > DB 0
 27+  C823 00          > DB 0
 27+  C824 00          > DB 0
 27+  C825 00          > DB 0
 27+  C826 00          > DB 0
 27+  C827 00          > DB 0
 27+  C828 00          > DB 0
 27+  C829 00          > DB 0
 27+  C82A 00          > DB 0
 27+  C82B 00          > DB 0
 27+  C82C 00          > DB 0
 27+  C82D 00          > DB 0
 27+  C82E 00          > DB 0
 27+  C82F 00          > DB 0
 27+  C830 00          > DB 0
 27+  C831 00          > DB 0
 27+  C832 00          > DB 0
 27+  C833 00          > DB 0
 27+  C834 00          > DB 0
 27+  C835 00          > DB 0
 27+  C836 00          > DB 0
 27+  C837 00          > DB 0
 27+  C838 00          > DB 0
 27+  C839 00          > DB 0
 27+  C83A 00          > DB 0
 27+  C83B 00          > DB 0
 27+  C83C 00          > DB 0
 27+  C83D 00          > DB 0
 27+  C83E 00          > DB 0
 27+  C83F 00          > DB 0
 27+  C840 00          > DB 0
 27+  C841 00          > DB 0
 27+  C842 00          > DB 0
 27+  C843 00          > DB 0
 27+  C844 00          > DB 0
 27+  C845 00          > DB 0
 27+  C846 00          > DB 0
 27+  C847 00          > DB 0
 27+  C848 00          > DB 0
 27+  C849 00          > DB 0
 27+  C84A 00          > DB 0
 27+  C84B 00          > DB 0
 27+  C84C 00          > DB 0
 27+  C84D 00          > DB 0
 27+  C84E 00          > DB 0
 27+  C84F 00          > DB 0
 27+  C850 00          > DB 0
 27+  C851 00          > DB 0
 27+  C852 00          > DB 0
 27+  C853 00          > DB 0
 27+  C854 00          > DB 0
 27+  C855 00          > DB 0
 27+  C856 00          > DB 0
 27+  C857 00          > DB 0
 27+  C858 00          > DB 0
 27+  C859 00          > DB 0
 27+  C85A 00          > DB 0
 27+  C85B 00          > DB 0
 27+  C85C 00          > DB 0
 27+  C85D 00          > DB 0
 27+  C85E 00          > DB 0
 27+  C85F 00          > DB 0
 27+  C860 00          > DB 0
 27+  C861 00          > DB 0
 27+  C862 00          > DB 0
 27+  C863 00          > DB 0
 27+  C864 00          > DB 0
 27+  C865 00          > DB 0
 27+  C866 00          > DB 0
 27+  C867 00          > DB 0
 27+  C868 00          > DB 0
 27+  C869 00          > DB 0
 27+  C86A 00          > DB 0
 27+  C86B 00          > DB 0
 27+  C86C 00          > DB 0
 27+  C86D 00          > DB 0
 27+  C86E 00          > DB 0
 27+  C86F 00          > DB 0
 27+  C870 00          > DB 0
 27+  C871 00          > DB 0
 27+  C872 00          > DB 0
 27+  C873 00          > DB 0
 27+  C874 00          > DB 0
 27+  C875 00          > DB 0
 27+  C876 00          > DB 0
 27+  C877 00          > DB 0
 27+  C878 00          > DB 0
 27+  C879 00          > DB 0
 27+  C87A 00          > DB 0
 27+  C87B 00          > DB 0
 27+  C87C 00          > DB 0
 27+  C87D 00          > DB 0
 27+  C87E 00          > DB 0
 27+  C87F 00          > DB 0
 27+  C880 00          > DB 0
 27+  C881 00          > DB 0
 27+  C882 00          > DB 0
 27+  C883 00          > DB 0
 27+  C884 00          > DB 0
 27+  C885 00          > DB 0
 27+  C886 00          > DB 0
 27+  C887 00          > DB 0
 27+  C888 00          > DB 0
 27+  C889 00          > DB 0
 27+  C88A 00          > DB 0
 27+  C88B 00          > DB 0
 27+  C88C 00          > DB 0
 27+  C88D 00          > DB 0
 27+  C88E 00          > DB 0
 27+  C88F 00          > DB 0
 27+  C890 00          > DB 0
 27+  C891 00          > DB 0
 27+  C892 00          > DB 0
 27+  C893 00          > DB 0
 27+  C894 00          > DB 0
 27+  C895 00          > DB 0
 27+  C896 00          > DB 0
 27+  C897 00          > DB 0
 27+  C898 00          > DB 0
 27+  C899 00          > DB 0
 27+  C89A 00          > DB 0
 27+  C89B 00          > DB 0
 27+  C89C 00          > DB 0
 27+  C89D 00          > DB 0
 27+  C89E 00          > DB 0
 27+  C89F 00          > DB 0
 27+  C8A0 00          > DB 0
 27+  C8A1 00          > DB 0
 27+  C8A2 00          > DB 0
 27+  C8A3 00          > DB 0
 27+  C8A4 00          > DB 0
 27+  C8A5 00          > DB 0
 27+  C8A6 00          > DB 0
 27+  C8A7 00          > DB 0
 27+  C8A8 00          > DB 0
 27+  C8A9 00          > DB 0
 27+  C8AA 00          > DB 0
 27+  C8AB 00          > DB 0
 27+  C8AC 00          > DB 0
 27+  C8AD 00          > DB 0
 27+  C8AE 00          > DB 0
 27+  C8AF 00          > DB 0
 27+  C8B0 00          > DB 0
 27+  C8B1 00          > DB 0
 27+  C8B2 00          > DB 0
 27+  C8B3 00          > DB 0
 27+  C8B4 00          > DB 0
 27+  C8B5 00          > DB 0
 27+  C8B6 00          > DB 0
 27+  C8B7 00          > DB 0
 27+  C8B8 00          > DB 0
 27+  C8B9 00          > DB 0
 27+  C8BA 00          > DB 0
 27+  C8BB 00          > DB 0
 27+  C8BC 00          > DB 0
 27+  C8BD 00          > DB 0
 27+  C8BE 00          > DB 0
 27+  C8BF 00          > DB 0
 27+  C8C0 00          > DB 0
 27+  C8C1 00          > DB 0
 27+  C8C2 00          > DB 0
 27+  C8C3 00          > DB 0
 27+  C8C4 00          > DB 0
 27+  C8C5 00          > DB 0
 27+  C8C6 00          > DB 0
 27+  C8C7 00          > DB 0
 27+  C8C8 00          > DB 0
 27+  C8C9 00          > DB 0
 27+  C8CA 00          > DB 0
 27+  C8CB 00          > DB 0
 27+  C8CC 00          > DB 0
 27+  C8CD 00          > DB 0
 27+  C8CE 00          > DB 0
 27+  C8CF 00          > DB 0
 27+  C8D0 00          > DB 0
 27+  C8D1 00          > DB 0
 27+  C8D2 00          > DB 0
 27+  C8D3 00          > DB 0
 27+  C8D4 00          > DB 0
 27+  C8D5 00          > DB 0
 27+  C8D6 00          > DB 0
 27+  C8D7 00          > DB 0
 27+  C8D8 00          > DB 0
 27+  C8D9 00          > DB 0
 27+  C8DA 00          > DB 0
 27+  C8DB 00          > DB 0
 27+  C8DC 00          > DB 0
 27+  C8DD 00          > DB 0
 27+  C8DE 00          > DB 0
 27+  C8DF 00          > DB 0
 27+  C8E0 00          > DB 0
 27+  C8E1 00          > DB 0
 27+  C8E2 00          > DB 0
 27+  C8E3 00          > DB 0
 27+  C8E4 00          > DB 0
 27+  C8E5 00          > DB 0
 27+  C8E6 00          > DB 0
 27+  C8E7 00          > DB 0
 27+  C8E8 00          > DB 0
 27+  C8E9 00          > DB 0
 27+  C8EA 00          > DB 0
 27+  C8EB 00          > DB 0
 27+  C8EC 00          > DB 0
 27+  C8ED 00          > DB 0
 27+  C8EE 00          > DB 0
 27+  C8EF 00          > DB 0
 27+  C8F0 00          > DB 0
 27+  C8F1 00          > DB 0
 27+  C8F2 00          > DB 0
 27+  C8F3 00          > DB 0
 27+  C8F4 00          > DB 0
 27+  C8F5 00          > DB 0
 27+  C8F6 00          > DB 0
 27+  C8F7 00          > DB 0
 27+  C8F8 00          > DB 0
 27+  C8F9 00          > DB 0
 27+  C8FA 00          > DB 0
 27+  C8FB 00          > DB 0
 27+  C8FC 00          > DB 0
 27+  C8FD 00          > DB 0
 27+  C8FE 00          > DB 0
 27+  C8FF 00          > DB 0
 27+  C900 00          > DB 0
 27+  C901 00          > DB 0
 27+  C902 00          > DB 0
 27+  C903 00          > DB 0
 27+  C904 00          > DB 0
 27+  C905 00          > DB 0
 27+  C906 00          > DB 0
 27+  C907 00          > DB 0
 27+  C908 00          > DB 0
 27+  C909 00          > DB 0
 27+  C90A 00          > DB 0
 27+  C90B 00          > DB 0
 27+  C90C 00          > DB 0
 27+  C90D 00          > DB 0
 27+  C90E 00          > DB 0
 27+  C90F 00          > DB 0
 27+  C910 00          > DB 0
 27+  C911 00          > DB 0
 27+  C912 00          > DB 0
 27+  C913 00          > DB 0
 27+  C914 00          > DB 0
 27+  C915 00          > DB 0
 27+  C916 00          > DB 0
 27+  C917 00          > DB 0
 27+  C918 00          > DB 0
 27+  C919 00          > DB 0
 27+  C91A 00          > DB 0
 27+  C91B 00          > DB 0
 27+  C91C 00          > DB 0
 27+  C91D 00          > DB 0
 27+  C91E 00          > DB 0
 27+  C91F 00          > DB 0
 27+  C920 00          > DB 0
 27+  C921 00          > DB 0
 27+  C922 00          > DB 0
 27+  C923 00          > DB 0
 27+  C924 00          > DB 0
 27+  C925 00          > DB 0
 27+  C926 00          > DB 0
 27+  C927 00          > DB 0
 27+  C928 00          > DB 0
 27+  C929 00          > DB 0
 27+  C92A 00          > DB 0
 27+  C92B 00          > DB 0
 27+  C92C 00          > DB 0
 27+  C92D 00          > DB 0
 27+  C92E 00          > DB 0
 27+  C92F 00          > DB 0
 27+  C930 00          > DB 0
 27+  C931 00          > DB 0
 27+  C932 00          > DB 0
 27+  C933 00          > DB 0
 27+  C934 00          > DB 0
 27+  C935 00          > DB 0
 27+  C936 00          > DB 0
 27+  C937 00          > DB 0
 27+  C938 00          > DB 0
 27+  C939 00          > DB 0
 27+  C93A 00          > DB 0
 27+  C93B 00          > DB 0
 27+  C93C 00          > DB 0
 27+  C93D 00          > DB 0
 27+  C93E 00          > DB 0
 27+  C93F 00          > DB 0
 27+  C940 00          > DB 0
 27+  C941 00          > DB 0
 27+  C942 00          > DB 0
 27+  C943 00          > DB 0
 27+  C944 00          > DB 0
 27+  C945 00          > DB 0
 27+  C946 00          > DB 0
 27+  C947 00          > DB 0
 27+  C948 00          > DB 0
 27+  C949 00          > DB 0
 27+  C94A 00          > DB 0
 27+  C94B 00          > DB 0
 27+  C94C 00          > DB 0
 27+  C94D 00          > DB 0
 27+  C94E 00          > DB 0
 27+  C94F 00          > DB 0
 27+  C950 00          > DB 0
 27+  C951 00          > DB 0
 27+  C952 00          > DB 0
 27+  C953 00          > DB 0
 27+  C954 00          > DB 0
 27+  C955 00          > DB 0
 27+  C956 00          > DB 0
 27+  C957 00          > DB 0
 27+  C958 00          > DB 0
 27+  C959 00          > DB 0
 27+  C95A 00          > DB 0
 27+  C95B 00          > DB 0
 27+  C95C 00          > DB 0
 27+  C95D 00          > DB 0
 27+  C95E 00          > DB 0
 27+  C95F 00          > DB 0
 27+  C960 00          > DB 0
 27+  C961 00          > DB 0
 27+  C962 00          > DB 0
 27+  C963 00          > DB 0
 27+  C964 00          > DB 0
 27+  C965 00          > DB 0
 27+  C966 00          > DB 0
 27+  C967 00          > DB 0
 27+  C968 00          > DB 0
 27+  C969 00          > DB 0
 27+  C96A 00          > DB 0
 27+  C96B 00          > DB 0
 27+  C96C 00          > DB 0
 27+  C96D 00          > DB 0
 27+  C96E 00          > DB 0
 27+  C96F 00          > DB 0
 27+  C970 00          > DB 0
 27+  C971 00          > DB 0
 27+  C972 00          > DB 0
 27+  C973 00          > DB 0
 27+  C974 00          > DB 0
 27+  C975 00          > DB 0
 27+  C976 00          > DB 0
 27+  C977 00          > DB 0
 27+  C978 00          > DB 0
 27+  C979 00          > DB 0
 27+  C97A 00          > DB 0
 27+  C97B 00          > DB 0
 27+  C97C 00          > DB 0
 27+  C97D 00          > DB 0
 27+  C97E 00          > DB 0
 27+  C97F 00          > DB 0
 27+  C980 00          > DB 0
 27+  C981 00          > DB 0
 27+  C982 00          > DB 0
 27+  C983 00          > DB 0
 27+  C984 00          > DB 0
 27+  C985 00          > DB 0
 27+  C986 00          > DB 0
 27+  C987 00          > DB 0
 27+  C988 00          > DB 0
 27+  C989 00          > DB 0
 27+  C98A 00          > DB 0
 27+  C98B 00          > DB 0
 27+  C98C 00          > DB 0
 27+  C98D 00          > DB 0
 27+  C98E 00          > DB 0
 27+  C98F 00          > DB 0
 27+  C990 00          > DB 0
 27+  C991 00          > DB 0
 27+  C992 00          > DB 0
 27+  C993 00          > DB 0
 27+  C994 00          > DB 0
 27+  C995 00          > DB 0
 27+  C996 00          > DB 0
 27+  C997 00          > DB 0
 27+  C998 00          > DB 0
 27+  C999 00          > DB 0
 27+  C99A 00          > DB 0
 27+  C99B 00          > DB 0
 27+  C99C 00          > DB 0
 27+  C99D 00          > DB 0
 27+  C99E 00          > DB 0
 27+  C99F 00          > DB 0
 27+  C9A0 00          > DB 0
 27+  C9A1 00          > DB 0
 27+  C9A2 00          > DB 0
 27+  C9A3 00          > DB 0
 27+  C9A4 00          > DB 0
 27+  C9A5 00          > DB 0
 27+  C9A6 00          > DB 0
 27+  C9A7 00          > DB 0
 27+  C9A8 00          > DB 0
 27+  C9A9 00          > DB 0
 27+  C9AA 00          > DB 0
 27+  C9AB 00          > DB 0
 27+  C9AC 00          > DB 0
 27+  C9AD 00          > DB 0
 27+  C9AE 00          > DB 0
 27+  C9AF 00          > DB 0
 27+  C9B0 00          > DB 0
 27+  C9B1 00          > DB 0
 27+  C9B2 00          > DB 0
 27+  C9B3 00          > DB 0
 27+  C9B4 00          > DB 0
 27+  C9B5 00          > DB 0
 27+  C9B6 00          > DB 0
 27+  C9B7 00          > DB 0
 27+  C9B8 00          > DB 0
 27+  C9B9 00          > DB 0
 27+  C9BA 00          > DB 0
 27+  C9BB 00          > DB 0
 27+  C9BC 00          > DB 0
 27+  C9BD 00          > DB 0
 27+  C9BE 00          > DB 0
 27+  C9BF 00          > DB 0
 27+  C9C0 00          > DB 0
 27+  C9C1 00          > DB 0
 27+  C9C2 00          > DB 0
 27+  C9C3 00          > DB 0
 27+  C9C4 00          > DB 0
 27+  C9C5 00          > DB 0
 27+  C9C6 00          > DB 0
 27+  C9C7 00          > DB 0
 27+  C9C8 00          > DB 0
 27+  C9C9 00          > DB 0
 27+  C9CA 00          > DB 0
 27+  C9CB 00          > DB 0
 27+  C9CC 00          > DB 0
 27+  C9CD 00          > DB 0
 27+  C9CE 00          > DB 0
 27+  C9CF 00          > DB 0
 27+  C9D0 00          > DB 0
 27+  C9D1 00          > DB 0
 27+  C9D2 00          > DB 0
 27+  C9D3 00          > DB 0
 27+  C9D4 00          > DB 0
 27+  C9D5 00          > DB 0
 27+  C9D6 00          > DB 0
 27+  C9D7 00          > DB 0
 27+  C9D8 00          > DB 0
 27+  C9D9 00          > DB 0
 27+  C9DA 00          > DB 0
 27+  C9DB 00          > DB 0
 27+  C9DC 00          > DB 0
 27+  C9DD 00          > DB 0
 27+  C9DE 00          > DB 0
 27+  C9DF 00          > DB 0
 27+  C9E0 00          > DB 0
 27+  C9E1 00          > DB 0
 27+  C9E2 00          > DB 0
 27+  C9E3 00          > DB 0
 27+  C9E4 00          > DB 0
 27+  C9E5 00          > DB 0
 27+  C9E6 00          > DB 0
 27+  C9E7 00          > DB 0
 27+  C9E8 00          > DB 0
 27+  C9E9 00          > DB 0
 27+  C9EA 00          > DB 0
 27+  C9EB 00          > DB 0
 27+  C9EC 00          > DB 0
 27+  C9ED 00          > DB 0
 27+  C9EE 00          > DB 0
 27+  C9EF 00          > DB 0
 27+  C9F0 00          > DB 0
 27+  C9F1 00          > DB 0
 27+  C9F2 00          > DB 0
 27+  C9F3 00          > DB 0
 27+  C9F4 00          > DB 0
 27+  C9F5 00          > DB 0
 27+  C9F6 00          > DB 0
 27+  C9F7 00          > DB 0
 27+  C9F8 00          > DB 0
 27+  C9F9 00          > DB 0
 27+  C9FA 00          > DB 0
 27+  C9FB 00          > DB 0
 27+  C9FC 00          > DB 0
 27+  C9FD 00          > DB 0
 27+  C9FE 00          > DB 0
 27+  C9FF 00          > DB 0
 27+  CA00 00          > DB 0
 27+  CA01 00          > DB 0
 27+  CA02 00          > DB 0
 27+  CA03 00          > DB 0
 27+  CA04 00          > DB 0
 27+  CA05 00          > DB 0
 27+  CA06 00          > DB 0
 27+  CA07 00          > DB 0
 27+  CA08 00          > DB 0
 27+  CA09 00          > DB 0
 27+  CA0A 00          > DB 0
 27+  CA0B 00          > DB 0
 27+  CA0C 00          > DB 0
 27+  CA0D 00          > DB 0
 27+  CA0E 00          > DB 0
 27+  CA0F 00          > DB 0
 27+  CA10 00          > DB 0
 27+  CA11 00          > DB 0
 27+  CA12 00          > DB 0
 27+  CA13 00          > DB 0
 27+  CA14 00          > DB 0
 27+  CA15 00          > DB 0
 27+  CA16 00          > DB 0
 27+  CA17 00          > DB 0
 27+  CA18 00          > DB 0
 27+  CA19 00          > DB 0
 27+  CA1A 00          > DB 0
 27+  CA1B 00          > DB 0
 27+  CA1C 00          > DB 0
 27+  CA1D 00          > DB 0
 27+  CA1E 00          > DB 0
 27+  CA1F 00          > DB 0
 27+  CA20 00          > DB 0
 27+  CA21 00          > DB 0
 27+  CA22 00          > DB 0
 27+  CA23 00          > DB 0
 27+  CA24 00          > DB 0
 27+  CA25 00          > DB 0
 27+  CA26 00          > DB 0
 27+  CA27 00          > DB 0
 27+  CA28 00          > DB 0
 27+  CA29 00          > DB 0
 27+  CA2A 00          > DB 0
 27+  CA2B 00          > DB 0
 27+  CA2C 00          > DB 0
 27+  CA2D 00          > DB 0
 27+  CA2E 00          > DB 0
 27+  CA2F 00          > DB 0
 27+  CA30 00          > DB 0
 27+  CA31 00          > DB 0
 27+  CA32 00          > DB 0
 27+  CA33 00          > DB 0
 27+  CA34 00          > DB 0
 27+  CA35 00          > DB 0
 27+  CA36 00          > DB 0
 27+  CA37 00          > DB 0
 27+  CA38 00          > DB 0
 27+  CA39 00          > DB 0
 27+  CA3A 00          > DB 0
 27+  CA3B 00          > DB 0
 27+  CA3C 00          > DB 0
 27+  CA3D 00          > DB 0
 27+  CA3E 00          > DB 0
 27+  CA3F 00          > DB 0
 27+  CA40 00          > DB 0
 27+  CA41 00          > DB 0
 27+  CA42 00          > DB 0
 27+  CA43 00          > DB 0
 27+  CA44 00          > DB 0
 27+  CA45 00          > DB 0
 27+  CA46 00          > DB 0
 27+  CA47 00          > DB 0
 27+  CA48 00          > DB 0
 27+  CA49 00          > DB 0
 27+  CA4A 00          > DB 0
 27+  CA4B 00          > DB 0
 27+  CA4C 00          > DB 0
 27+  CA4D 00          > DB 0
 27+  CA4E 00          > DB 0
 27+  CA4F 00          > DB 0
 27+  CA50 00          > DB 0
 27+  CA51 00          > DB 0
 27+  CA52 00          > DB 0
 27+  CA53 00          > DB 0
 27+  CA54 00          > DB 0
 27+  CA55 00          > DB 0
 27+  CA56 00          > DB 0
 27+  CA57 00          > DB 0
 27+  CA58 00          > DB 0
 27+  CA59 00          > DB 0
 27+  CA5A 00          > DB 0
 27+  CA5B 00          > DB 0
 27+  CA5C 00          > DB 0
 27+  CA5D 00          > DB 0
 27+  CA5E 00          > DB 0
 27+  CA5F 00          > DB 0
 27+  CA60 00          > DB 0
 27+  CA61 00          > DB 0
 27+  CA62 00          > DB 0
 27+  CA63 00          > DB 0
 27+  CA64 00          > DB 0
 27+  CA65 00          > DB 0
 27+  CA66 00          > DB 0
 27+  CA67 00          > DB 0
 27+  CA68 00          > DB 0
 27+  CA69 00          > DB 0
 27+  CA6A 00          > DB 0
 27+  CA6B 00          > DB 0
 27+  CA6C 00          > DB 0
 27+  CA6D 00          > DB 0
 27+  CA6E 00          > DB 0
 27+  CA6F 00          > DB 0
 27+  CA70 00          > DB 0
 27+  CA71 00          > DB 0
 27+  CA72 00          > DB 0
 27+  CA73 00          > DB 0
 27+  CA74 00          > DB 0
 27+  CA75 00          > DB 0
 27+  CA76 00          > DB 0
 27+  CA77 00          > DB 0
 27+  CA78 00          > DB 0
 27+  CA79 00          > DB 0
 27+  CA7A 00          > DB 0
 27+  CA7B 00          > DB 0
 27+  CA7C 00          > DB 0
 27+  CA7D 00          > DB 0
 27+  CA7E 00          > DB 0
 27+  CA7F 00          > DB 0
 27+  CA80 00          > DB 0
 27+  CA81 00          > DB 0
 27+  CA82 00          > DB 0
 27+  CA83 00          > DB 0
 27+  CA84 00          > DB 0
 27+  CA85 00          > DB 0
 27+  CA86 00          > DB 0
 27+  CA87 00          > DB 0
 27+  CA88 00          > DB 0
 27+  CA89 00          > DB 0
 27+  CA8A 00          > DB 0
 27+  CA8B 00          > DB 0
 27+  CA8C 00          > DB 0
 27+  CA8D 00          > DB 0
 27+  CA8E 00          > DB 0
 27+  CA8F 00          > DB 0
 27+  CA90 00          > DB 0
 27+  CA91 00          > DB 0
 27+  CA92 00          > DB 0
 27+  CA93 00          > DB 0
 27+  CA94 00          > DB 0
 27+  CA95 00          > DB 0
 27+  CA96 00          > DB 0
 27+  CA97 00          > DB 0
 27+  CA98 00          > DB 0
 27+  CA99 00          > DB 0
 27+  CA9A 00          > DB 0
 27+  CA9B 00          > DB 0
 27+  CA9C 00          > DB 0
 27+  CA9D 00          > DB 0
 27+  CA9E 00          > DB 0
 27+  CA9F 00          > DB 0
 27+  CAA0 00          > DB 0
 27+  CAA1 00          > DB 0
 27+  CAA2 00          > DB 0
 27+  CAA3 00          > DB 0
 27+  CAA4 00          > DB 0
 27+  CAA5 00          > DB 0
 27+  CAA6 00          > DB 0
 27+  CAA7 00          > DB 0
 27+  CAA8 00          > DB 0
 27+  CAA9 00          > DB 0
 27+  CAAA 00          > DB 0
 27+  CAAB 00          > DB 0
 27+  CAAC 00          > DB 0
 27+  CAAD 00          > DB 0
 27+  CAAE 00          > DB 0
 27+  CAAF 00          > DB 0
 27+  CAB0 00          > DB 0
 27+  CAB1 00          > DB 0
 27+  CAB2 00          > DB 0
 27+  CAB3 00          > DB 0
 27+  CAB4 00          > DB 0
 27+  CAB5 00          > DB 0
 27+  CAB6 00          > DB 0
 27+  CAB7 00          > DB 0
 27+  CAB8 00          > DB 0
 27+  CAB9 00          > DB 0
 27+  CABA 00          > DB 0
 27+  CABB 00          > DB 0
 27+  CABC 00          > DB 0
 27+  CABD 00          > DB 0
 27+  CABE 00          > DB 0
 27+  CABF 00          > DB 0
 27+  CAC0 00          > DB 0
 27+  CAC1 00          > DB 0
 27+  CAC2 00          > DB 0
 27+  CAC3 00          > DB 0
 27+  CAC4 00          > DB 0
 27+  CAC5 00          > DB 0
 27+  CAC6 00          > DB 0
 27+  CAC7 00          > DB 0
 27+  CAC8 00          > DB 0
 27+  CAC9 00          > DB 0
 27+  CACA 00          > DB 0
 27+  CACB 00          > DB 0
 27+  CACC 00          > DB 0
 27+  CACD 00          > DB 0
 27+  CACE 00          > DB 0
 27+  CACF 00          > DB 0
 27+  CAD0 00          > DB 0
 27+  CAD1 00          > DB 0
 27+  CAD2 00          > DB 0
 27+  CAD3 00          > DB 0
 27+  CAD4 00          > DB 0
 27+  CAD5 00          > DB 0
 27+  CAD6 00          > DB 0
 27+  CAD7 00          > DB 0
 27+  CAD8 00          > DB 0
 27+  CAD9 00          > DB 0
 27+  CADA 00          > DB 0
 27+  CADB 00          > DB 0
 27+  CADC 00          > DB 0
 27+  CADD 00          > DB 0
 27+  CADE 00          > DB 0
 27+  CADF 00          > DB 0
 27+  CAE0 00          > DB 0
 27+  CAE1 00          > DB 0
 27+  CAE2 00          > DB 0
 27+  CAE3 00          > DB 0
 27+  CAE4 00          > DB 0
 27+  CAE5 00          > DB 0
 27+  CAE6 00          > DB 0
 27+  CAE7 00          > DB 0
 27+  CAE8 00          > DB 0
 27+  CAE9 00          > DB 0
 27+  CAEA 00          > DB 0
 27+  CAEB 00          > DB 0
 27+  CAEC 00          > DB 0
 27+  CAED 00          > DB 0
 27+  CAEE 00          > DB 0
 27+  CAEF 00          > DB 0
 27+  CAF0 00          > DB 0
 27+  CAF1 00          > DB 0
 27+  CAF2 00          > DB 0
 27+  CAF3 00          > DB 0
 27+  CAF4 00          > DB 0
 27+  CAF5 00          > DB 0
 27+  CAF6 00          > DB 0
 27+  CAF7 00          > DB 0
 27+  CAF8 00          > DB 0
 27+  CAF9 00          > DB 0
 27+  CAFA 00          > DB 0
 27+  CAFB 00          > DB 0
 27+  CAFC 00          > DB 0
 27+  CAFD 00          > DB 0
 27+  CAFE 00          > DB 0
 27+  CAFF 00          > DB 0
 27+  CB00 00          > DB 0
 27+  CB01 00          > DB 0
 27+  CB02 00          > DB 0
 27+  CB03 00          > DB 0
 27+  CB04 00          > DB 0
 27+  CB05 00          > DB 0
 27+  CB06 00          > DB 0
 27+  CB07 00          > DB 0
 27+  CB08 00          > DB 0
 27+  CB09 00          > DB 0
 27+  CB0A 00          > DB 0
 27+  CB0B 00          > DB 0
 27+  CB0C 00          > DB 0
 27+  CB0D 00          > DB 0
 27+  CB0E 00          > DB 0
 27+  CB0F 00          > DB 0
 27+  CB10 00          > DB 0
 27+  CB11 00          > DB 0
 27+  CB12 00          > DB 0
 27+  CB13 00          > DB 0
 27+  CB14 00          > DB 0
 27+  CB15 00          > DB 0
 27+  CB16 00          > DB 0
 27+  CB17 00          > DB 0
 27+  CB18 00          > DB 0
 27+  CB19 00          > DB 0
 27+  CB1A 00          > DB 0
 27+  CB1B 00          > DB 0
 27+  CB1C 00          > DB 0
 27+  CB1D 00          > DB 0
 27+  CB1E 00          > DB 0
 27+  CB1F 00          > DB 0
 27+  CB20 00          > DB 0
 27+  CB21 00          > DB 0
 27+  CB22 00          > DB 0
 27+  CB23 00          > DB 0
 27+  CB24 00          > DB 0
 27+  CB25 00          > DB 0
 27+  CB26 00          > DB 0
 27+  CB27 00          > DB 0
 27+  CB28 00          > DB 0
 27+  CB29 00          > DB 0
 27+  CB2A 00          > DB 0
 27+  CB2B 00          > DB 0
 27+  CB2C 00          > DB 0
 27+  CB2D 00          > DB 0
 27+  CB2E 00          > DB 0
 27+  CB2F 00          > DB 0
 27+  CB30 00          > DB 0
 27+  CB31 00          > DB 0
 27+  CB32 00          > DB 0
 27+  CB33 00          > DB 0
 27+  CB34 00          > DB 0
 27+  CB35 00          > DB 0
 27+  CB36 00          > DB 0
 27+  CB37 00          > DB 0
 27+  CB38 00          > DB 0
 27+  CB39 00          > DB 0
 27+  CB3A 00          > DB 0
 27+  CB3B 00          > DB 0
 27+  CB3C 00          > DB 0
 27+  CB3D 00          > DB 0
 27+  CB3E 00          > DB 0
 27+  CB3F 00          > DB 0
 27+  CB40 00          > DB 0
 27+  CB41 00          > DB 0
 27+  CB42 00          > DB 0
 27+  CB43 00          > DB 0
 27+  CB44 00          > DB 0
 27+  CB45 00          > DB 0
 27+  CB46 00          > DB 0
 27+  CB47 00          > DB 0
 27+  CB48 00          > DB 0
 27+  CB49 00          > DB 0
 27+  CB4A 00          > DB 0
 27+  CB4B 00          > DB 0
 27+  CB4C 00          > DB 0
 27+  CB4D 00          > DB 0
 27+  CB4E 00          > DB 0
 27+  CB4F 00          > DB 0
 27+  CB50 00          > DB 0
 27+  CB51 00          > DB 0
 27+  CB52 00          > DB 0
 27+  CB53 00          > DB 0
 27+  CB54 00          > DB 0
 27+  CB55 00          > DB 0
 27+  CB56 00          > DB 0
 27+  CB57 00          > DB 0
 27+  CB58 00          > DB 0
 27+  CB59 00          > DB 0
 27+  CB5A 00          > DB 0
 27+  CB5B 00          > DB 0
 27+  CB5C 00          > DB 0
 27+  CB5D 00          > DB 0
 27+  CB5E 00          > DB 0
 27+  CB5F 00          > DB 0
 27+  CB60 00          > DB 0
 27+  CB61 00          > DB 0
 27+  CB62 00          > DB 0
 27+  CB63 00          > DB 0
 27+  CB64 00          > DB 0
 27+  CB65 00          > DB 0
 27+  CB66 00          > DB 0
 27+  CB67 00          > DB 0
 27+  CB68 00          > DB 0
 27+  CB69 00          > DB 0
 27+  CB6A 00          > DB 0
 27+  CB6B 00          > DB 0
 27+  CB6C 00          > DB 0
 27+  CB6D 00          > DB 0
 27+  CB6E 00          > DB 0
 27+  CB6F 00          > DB 0
 27+  CB70 00          > DB 0
 27+  CB71 00          > DB 0
 27+  CB72 00          > DB 0
 27+  CB73 00          > DB 0
 27+  CB74 00          > DB 0
 27+  CB75 00          > DB 0
 27+  CB76 00          > DB 0
 27+  CB77 00          > DB 0
 27+  CB78 00          > DB 0
 27+  CB79 00          > DB 0
 27+  CB7A 00          > DB 0
 27+  CB7B 00          > DB 0
 27+  CB7C 00          > DB 0
 27+  CB7D 00          > DB 0
 27+  CB7E 00          > DB 0
 27+  CB7F 00          > DB 0
 27+  CB80 00          > DB 0
 27+  CB81 00          > DB 0
 27+  CB82 00          > DB 0
 27+  CB83 00          > DB 0
 27+  CB84 00          > DB 0
 27+  CB85 00          > DB 0
 27+  CB86 00          > DB 0
 27+  CB87 00          > DB 0
 27+  CB88 00          > DB 0
 27+  CB89 00          > DB 0
 27+  CB8A 00          > DB 0
 27+  CB8B 00          > DB 0
 27+  CB8C 00          > DB 0
 27+  CB8D 00          > DB 0
 27+  CB8E 00          > DB 0
 27+  CB8F 00          > DB 0
 27+  CB90 00          > DB 0
 27+  CB91 00          > DB 0
 27+  CB92 00          > DB 0
 27+  CB93 00          > DB 0
 27+  CB94 00          > DB 0
 27+  CB95 00          > DB 0
 27+  CB96 00          > DB 0
 27+  CB97 00          > DB 0
 27+  CB98 00          > DB 0
 27+  CB99 00          > DB 0
 27+  CB9A 00          > DB 0
 27+  CB9B 00          > DB 0
 27+  CB9C 00          > DB 0
 27+  CB9D 00          > DB 0
 27+  CB9E 00          > DB 0
 27+  CB9F 00          > DB 0
 27+  CBA0 00          > DB 0
 27+  CBA1 00          > DB 0
 27+  CBA2 00          > DB 0
 27+  CBA3 00          > DB 0
 27+  CBA4 00          > DB 0
 27+  CBA5 00          > DB 0
 27+  CBA6 00          > DB 0
 27+  CBA7 00          > DB 0
 27+  CBA8 00          > DB 0
 27+  CBA9 00          > DB 0
 27+  CBAA 00          > DB 0
 27+  CBAB 00          > DB 0
 27+  CBAC 00          > DB 0
 27+  CBAD 00          > DB 0
 27+  CBAE 00          > DB 0
 27+  CBAF 00          > DB 0
 27+  CBB0 00          > DB 0
 27+  CBB1 00          > DB 0
 27+  CBB2 00          > DB 0
 27+  CBB3 00          > DB 0
 27+  CBB4 00          > DB 0
 27+  CBB5 00          > DB 0
 27+  CBB6 00          > DB 0
 27+  CBB7 00          > DB 0
 27+  CBB8 00          > DB 0
 27+  CBB9 00          > DB 0
 27+  CBBA 00          > DB 0
 27+  CBBB 00          > DB 0
 27+  CBBC 00          > DB 0
 27+  CBBD 00          > DB 0
 27+  CBBE 00          > DB 0
 27+  CBBF 00          > DB 0
 27+  CBC0 00          > DB 0
 27+  CBC1 00          > DB 0
 27+  CBC2 00          > DB 0
 27+  CBC3 00          > DB 0
 27+  CBC4 00          > DB 0
 27+  CBC5 00          > DB 0
 27+  CBC6 00          > DB 0
 27+  CBC7 00          > DB 0
 27+  CBC8 00          > DB 0
 27+  CBC9 00          > DB 0
 27+  CBCA 00          > DB 0
 27+  CBCB 00          > DB 0
 27+  CBCC 00          > DB 0
 27+  CBCD 00          > DB 0
 27+  CBCE 00          > DB 0
 27+  CBCF 00          > DB 0
 27+  CBD0 00          > DB 0
 27+  CBD1 00          > DB 0
 27+  CBD2 00          > DB 0
 27+  CBD3 00          > DB 0
 27+  CBD4 00          > DB 0
 27+  CBD5 00          > DB 0
 27+  CBD6 00          > DB 0
 27+  CBD7 00          > DB 0
 27+  CBD8 00          > DB 0
 27+  CBD9 00          > DB 0
 27+  CBDA 00          > DB 0
 27+  CBDB 00          > DB 0
 27+  CBDC 00          > DB 0
 27+  CBDD 00          > DB 0
 27+  CBDE 00          > DB 0
 27+  CBDF 00          > DB 0
 27+  CBE0 00          > DB 0
 27+  CBE1 00          > DB 0
 27+  CBE2 00          > DB 0
 27+  CBE3 00          > DB 0
 27+  CBE4 00          > DB 0
 27+  CBE5 00          > DB 0
 27+  CBE6 00          > DB 0
 27+  CBE7 00          > DB 0
 27+  CBE8 00          > DB 0
 27+  CBE9 00          > DB 0
 27+  CBEA 00          > DB 0
 27+  CBEB 00          > DB 0
 27+  CBEC 00          > DB 0
 27+  CBED 00          > DB 0
 27+  CBEE 00          > DB 0
 27+  CBEF 00          > DB 0
 27+  CBF0 00          > DB 0
 27+  CBF1 00          > DB 0
 27+  CBF2 00          > DB 0
 27+  CBF3 00          > DB 0
 27+  CBF4 00          > DB 0
 27+  CBF5 00          > DB 0
 27+  CBF6 00          > DB 0
 27+  CBF7 00          > DB 0
 27+  CBF8 00          > DB 0
 27+  CBF9 00          > DB 0
 27+  CBFA 00          > DB 0
 27+  CBFB 00          > DB 0
 27+  CBFC 00          > DB 0
 27+  CBFD 00          > DB 0
 27+  CBFE 00          > DB 0
 27+  CBFF 00          > DB 0
 27+  CC00 00          > DB 0
 27+  CC01 00          > DB 0
 27+  CC02 00          > DB 0
 27+  CC03 00          > DB 0
 27+  CC04 00          > DB 0
 27+  CC05 00          > DB 0
 27+  CC06 00          > DB 0
 27+  CC07 00          > DB 0
 27+  CC08 00          > DB 0
 27+  CC09 00          > DB 0
 27+  CC0A 00          > DB 0
 27+  CC0B 00          > DB 0
 27+  CC0C 00          > DB 0
 27+  CC0D 00          > DB 0
 27+  CC0E 00          > DB 0
 27+  CC0F 00          > DB 0
 27+  CC10 00          > DB 0
 27+  CC11 00          > DB 0
 27+  CC12 00          > DB 0
 27+  CC13 00          > DB 0
 27+  CC14 00          > DB 0
 27+  CC15 00          > DB 0
 27+  CC16 00          > DB 0
 27+  CC17 00          > DB 0
 27+  CC18 00          > DB 0
 27+  CC19 00          > DB 0
 27+  CC1A 00          > DB 0
 27+  CC1B 00          > DB 0
 27+  CC1C 00          > DB 0
 27+  CC1D 00          > DB 0
 27+  CC1E 00          > DB 0
 27+  CC1F 00          > DB 0
 27+  CC20 00          > DB 0
 27+  CC21 00          > DB 0
 27+  CC22 00          > DB 0
 27+  CC23 00          > DB 0
 27+  CC24 00          > DB 0
 27+  CC25 00          > DB 0
 27+  CC26 00          > DB 0
 27+  CC27 00          > DB 0
 27+  CC28 00          > DB 0
 27+  CC29 00          > DB 0
 27+  CC2A 00          > DB 0
 27+  CC2B 00          > DB 0
 27+  CC2C 00          > DB 0
 27+  CC2D 00          > DB 0
 27+  CC2E 00          > DB 0
 27+  CC2F 00          > DB 0
 27+  CC30 00          > DB 0
 27+  CC31 00          > DB 0
 27+  CC32 00          > DB 0
 27+  CC33 00          > DB 0
 27+  CC34 00          > DB 0
 27+  CC35 00          > DB 0
 27+  CC36 00          > DB 0
 27+  CC37 00          > DB 0
 27+  CC38 00          > DB 0
 27+  CC39 00          > DB 0
 27+  CC3A 00          > DB 0
 27+  CC3B 00          > DB 0
 27+  CC3C 00          > DB 0
 27+  CC3D 00          > DB 0
 27+  CC3E 00          > DB 0
 27+  CC3F 00          > DB 0
 27+  CC40 00          > DB 0
 27+  CC41 00          > DB 0
 27+  CC42 00          > DB 0
 27+  CC43 00          > DB 0
 27+  CC44 00          > DB 0
 27+  CC45 00          > DB 0
 27+  CC46 00          > DB 0
 27+  CC47 00          > DB 0
 27+  CC48 00          > DB 0
 27+  CC49 00          > DB 0
 27+  CC4A 00          > DB 0
 27+  CC4B 00          > DB 0
 27+  CC4C 00          > DB 0
 27+  CC4D 00          > DB 0
 27+  CC4E 00          > DB 0
 27+  CC4F 00          > DB 0
 27+  CC50 00          > DB 0
 27+  CC51 00          > DB 0
 27+  CC52 00          > DB 0
 27+  CC53 00          > DB 0
 27+  CC54 00          > DB 0
 27+  CC55 00          > DB 0
 27+  CC56 00          > DB 0
 27+  CC57 00          > DB 0
 27+  CC58 00          > DB 0
 27+  CC59 00          > DB 0
 27+  CC5A 00          > DB 0
 27+  CC5B 00          > DB 0
 27+  CC5C 00          > DB 0
 27+  CC5D 00          > DB 0
 27+  CC5E 00          > DB 0
 27+  CC5F 00          > DB 0
 27+  CC60 00          > DB 0
 27+  CC61 00          > DB 0
 27+  CC62 00          > DB 0
 27+  CC63 00          > DB 0
 27+  CC64 00          > DB 0
 27+  CC65 00          > DB 0
 27+  CC66 00          > DB 0
 27+  CC67 00          > DB 0
 27+  CC68 00          > DB 0
 27+  CC69 00          > DB 0
 27+  CC6A 00          > DB 0
 27+  CC6B 00          > DB 0
 27+  CC6C 00          > DB 0
 27+  CC6D 00          > DB 0
 27+  CC6E 00          > DB 0
 27+  CC6F 00          > DB 0
 27+  CC70 00          > DB 0
 27+  CC71 00          > DB 0
 27+  CC72 00          > DB 0
 27+  CC73 00          > DB 0
 27+  CC74 00          > DB 0
 27+  CC75 00          > DB 0
 27+  CC76 00          > DB 0
 27+  CC77 00          > DB 0
 27+  CC78 00          > DB 0
 27+  CC79 00          > DB 0
 27+  CC7A 00          > DB 0
 27+  CC7B 00          > DB 0
 27+  CC7C 00          > DB 0
 27+  CC7D 00          > DB 0
 27+  CC7E 00          > DB 0
 27+  CC7F 00          > DB 0
 27+  CC80 00          > DB 0
 27+  CC81 00          > DB 0
 27+  CC82 00          > DB 0
 27+  CC83 00          > DB 0
 27+  CC84 00          > DB 0
 27+  CC85 00          > DB 0
 27+  CC86 00          > DB 0
 27+  CC87 00          > DB 0
 27+  CC88 00          > DB 0
 27+  CC89 00          > DB 0
 27+  CC8A 00          > DB 0
 27+  CC8B 00          > DB 0
 27+  CC8C 00          > DB 0
 27+  CC8D 00          > DB 0
 27+  CC8E 00          > DB 0
 27+  CC8F 00          > DB 0
 27+  CC90 00          > DB 0
 27+  CC91 00          > DB 0
 27+  CC92 00          > DB 0
 27+  CC93 00          > DB 0
 27+  CC94 00          > DB 0
 27+  CC95 00          > DB 0
 27+  CC96 00          > DB 0
 27+  CC97 00          > DB 0
 27+  CC98 00          > DB 0
 27+  CC99 00          > DB 0
 27+  CC9A 00          > DB 0
 27+  CC9B 00          > DB 0
 27+  CC9C 00          > DB 0
 27+  CC9D 00          > DB 0
 27+  CC9E 00          > DB 0
 27+  CC9F 00          > DB 0
 27+  CCA0 00          > DB 0
 27+  CCA1 00          > DB 0
 27+  CCA2 00          > DB 0
 27+  CCA3 00          > DB 0
 27+  CCA4 00          > DB 0
 27+  CCA5 00          > DB 0
 27+  CCA6 00          > DB 0
 27+  CCA7 00          > DB 0
 27+  CCA8 00          > DB 0
 27+  CCA9 00          > DB 0
 27+  CCAA 00          > DB 0
 27+  CCAB 00          > DB 0
 27+  CCAC 00          > DB 0
 27+  CCAD 00          > DB 0
 27+  CCAE 00          > DB 0
 27+  CCAF 00          > DB 0
 27+  CCB0 00          > DB 0
 27+  CCB1 00          > DB 0
 27+  CCB2 00          > DB 0
 27+  CCB3 00          > DB 0
 27+  CCB4 00          > DB 0
 27+  CCB5 00          > DB 0
 27+  CCB6 00          > DB 0
 27+  CCB7 00          > DB 0
 27+  CCB8 00          > DB 0
 27+  CCB9 00          > DB 0
 27+  CCBA 00          > DB 0
 27+  CCBB 00          > DB 0
 27+  CCBC 00          > DB 0
 27+  CCBD 00          > DB 0
 27+  CCBE 00          > DB 0
 27+  CCBF 00          > DB 0
 27+  CCC0 00          > DB 0
 27+  CCC1 00          > DB 0
 27+  CCC2 00          > DB 0
 27+  CCC3 00          > DB 0
 27+  CCC4 00          > DB 0
 27+  CCC5 00          > DB 0
 27+  CCC6 00          > DB 0
 27+  CCC7 00          > DB 0
 27+  CCC8 00          > DB 0
 27+  CCC9 00          > DB 0
 27+  CCCA 00          > DB 0
 27+  CCCB 00          > DB 0
 27+  CCCC 00          > DB 0
 27+  CCCD 00          > DB 0
 27+  CCCE 00          > DB 0
 27+  CCCF 00          > DB 0
 27+  CCD0 00          > DB 0
 27+  CCD1 00          > DB 0
 27+  CCD2 00          > DB 0
 27+  CCD3 00          > DB 0
 27+  CCD4 00          > DB 0
 27+  CCD5 00          > DB 0
 27+  CCD6 00          > DB 0
 27+  CCD7 00          > DB 0
 27+  CCD8 00          > DB 0
 27+  CCD9 00          > DB 0
 27+  CCDA 00          > DB 0
 27+  CCDB 00          > DB 0
 27+  CCDC 00          > DB 0
 27+  CCDD 00          > DB 0
 27+  CCDE 00          > DB 0
 27+  CCDF 00          > DB 0
 27+  CCE0 00          > DB 0
 27+  CCE1 00          > DB 0
 27+  CCE2 00          > DB 0
 27+  CCE3 00          > DB 0
 27+  CCE4 00          > DB 0
 27+  CCE5 00          > DB 0
 27+  CCE6 00          > DB 0
 27+  CCE7 00          > DB 0
 27+  CCE8 00          > DB 0
 27+  CCE9 00          > DB 0
 27+  CCEA 00          > DB 0
 27+  CCEB 00          > DB 0
 27+  CCEC 00          > DB 0
 27+  CCED 00          > DB 0
 27+  CCEE 00          > DB 0
 27+  CCEF 00          > DB 0
 27+  CCF0 00          > DB 0
 27+  CCF1 00          > DB 0
 27+  CCF2 00          > DB 0
 27+  CCF3 00          > DB 0
 27+  CCF4 00          > DB 0
 27+  CCF5 00          > DB 0
 27+  CCF6 00          > DB 0
 27+  CCF7 00          > DB 0
 27+  CCF8 00          > DB 0
 27+  CCF9 00          > DB 0
 27+  CCFA 00          > DB 0
 27+  CCFB 00          > DB 0
 27+  CCFC 00          > DB 0
 27+  CCFD 00          > DB 0
 27+  CCFE 00          > DB 0
 27+  CCFF 00          > DB 0
 27+  CD00 00          > DB 0
 27+  CD01 00          > DB 0
 27+  CD02 00          > DB 0
 27+  CD03 00          > DB 0
 27+  CD04 00          > DB 0
 27+  CD05 00          > DB 0
 27+  CD06 00          > DB 0
 27+  CD07 00          > DB 0
 27+  CD08 00          > DB 0
 27+  CD09 00          > DB 0
 27+  CD0A 00          > DB 0
 27+  CD0B 00          > DB 0
 27+  CD0C 00          > DB 0
 27+  CD0D 00          > DB 0
 27+  CD0E 00          > DB 0
 27+  CD0F 00          > DB 0
 27+  CD10 00          > DB 0
 27+  CD11 00          > DB 0
 27+  CD12 00          > DB 0
 27+  CD13 00          > DB 0
 27+  CD14 00          > DB 0
 27+  CD15 00          > DB 0
 27+  CD16 00          > DB 0
 27+  CD17 00          > DB 0
 27+  CD18 00          > DB 0
 27+  CD19 00          > DB 0
 27+  CD1A 00          > DB 0
 27+  CD1B 00          > DB 0
 27+  CD1C 00          > DB 0
 27+  CD1D 00          > DB 0
 27+  CD1E 00          > DB 0
 27+  CD1F 00          > DB 0
 27+  CD20 00          > DB 0
 27+  CD21 00          > DB 0
 27+  CD22 00          > DB 0
 27+  CD23 00          > DB 0
 27+  CD24 00          > DB 0
 27+  CD25 00          > DB 0
 27+  CD26 00          > DB 0
 27+  CD27 00          > DB 0
 27+  CD28 00          > DB 0
 27+  CD29 00          > DB 0
 27+  CD2A 00          > DB 0
 27+  CD2B 00          > DB 0
 27+  CD2C 00          > DB 0
 27+  CD2D 00          > DB 0
 27+  CD2E 00          > DB 0
 27+  CD2F 00          > DB 0
 27+  CD30 00          > DB 0
 27+  CD31 00          > DB 0
 27+  CD32 00          > DB 0
 27+  CD33 00          > DB 0
 27+  CD34 00          > DB 0
 27+  CD35 00          > DB 0
 27+  CD36 00          > DB 0
 27+  CD37 00          > DB 0
 27+  CD38 00          > DB 0
 27+  CD39 00          > DB 0
 27+  CD3A 00          > DB 0
 27+  CD3B 00          > DB 0
 27+  CD3C 00          > DB 0
 27+  CD3D 00          > DB 0
 27+  CD3E 00          > DB 0
 27+  CD3F 00          > DB 0
 27+  CD40 00          > DB 0
 27+  CD41 00          > DB 0
 27+  CD42 00          > DB 0
 27+  CD43 00          > DB 0
 27+  CD44 00          > DB 0
 27+  CD45 00          > DB 0
 27+  CD46 00          > DB 0
 27+  CD47 00          > DB 0
 27+  CD48 00          > DB 0
 27+  CD49 00          > DB 0
 27+  CD4A 00          > DB 0
 27+  CD4B 00          > DB 0
 27+  CD4C 00          > DB 0
 27+  CD4D 00          > DB 0
 27+  CD4E 00          > DB 0
 27+  CD4F 00          > DB 0
 27+  CD50 00          > DB 0
 27+  CD51 00          > DB 0
 27+  CD52 00          > DB 0
 27+  CD53 00          > DB 0
 27+  CD54 00          > DB 0
 27+  CD55 00          > DB 0
 27+  CD56 00          > DB 0
 27+  CD57 00          > DB 0
 27+  CD58 00          > DB 0
 27+  CD59 00          > DB 0
 27+  CD5A 00          > DB 0
 27+  CD5B 00          > DB 0
 27+  CD5C 00          > DB 0
 27+  CD5D 00          > DB 0
 27+  CD5E 00          > DB 0
 27+  CD5F 00          > DB 0
 27+  CD60 00          > DB 0
 27+  CD61 00          > DB 0
 27+  CD62 00          > DB 0
 27+  CD63 00          > DB 0
 27+  CD64 00          > DB 0
 27+  CD65 00          > DB 0
 27+  CD66 00          > DB 0
 27+  CD67 00          > DB 0
 27+  CD68 00          > DB 0
 27+  CD69 00          > DB 0
 27+  CD6A 00          > DB 0
 27+  CD6B 00          > DB 0
 27+  CD6C 00          > DB 0
 27+  CD6D 00          > DB 0
 27+  CD6E 00          > DB 0
 27+  CD6F 00          > DB 0
 27+  CD70 00          > DB 0
 27+  CD71 00          > DB 0
 27+  CD72 00          > DB 0
 27+  CD73 00          > DB 0
 27+  CD74 00          > DB 0
 27+  CD75 00          > DB 0
 27+  CD76 00          > DB 0
 27+  CD77 00          > DB 0
 27+  CD78 00          > DB 0
 27+  CD79 00          > DB 0
 27+  CD7A 00          > DB 0
 27+  CD7B 00          > DB 0
 27+  CD7C 00          > DB 0
 27+  CD7D 00          > DB 0
 27+  CD7E 00          > DB 0
 27+  CD7F 00          > DB 0
 27+  CD80 00          > DB 0
 27+  CD81 00          > DB 0
 27+  CD82 00          > DB 0
 27+  CD83 00          > DB 0
 27+  CD84 00          > DB 0
 27+  CD85 00          > DB 0
 27+  CD86 00          > DB 0
 27+  CD87 00          > DB 0
 27+  CD88 00          > DB 0
 27+  CD89 00          > DB 0
 27+  CD8A 00          > DB 0
 27+  CD8B 00          > DB 0
 27+  CD8C 00          > DB 0
 27+  CD8D 00          > DB 0
 27+  CD8E 00          > DB 0
 27+  CD8F 00          > DB 0
 27+  CD90 00          > DB 0
 27+  CD91 00          > DB 0
 27+  CD92 00          > DB 0
 27+  CD93 00          > DB 0
 27+  CD94 00          > DB 0
 27+  CD95 00          > DB 0
 27+  CD96 00          > DB 0
 27+  CD97 00          > DB 0
 27+  CD98 00          > DB 0
 27+  CD99 00          > DB 0
 27+  CD9A 00          > DB 0
 27+  CD9B 00          > DB 0
 27+  CD9C 00          > DB 0
 27+  CD9D 00          > DB 0
 27+  CD9E 00          > DB 0
 27+  CD9F 00          > DB 0
 27+  CDA0 00          > DB 0
 27+  CDA1 00          > DB 0
 27+  CDA2 00          > DB 0
 27+  CDA3 00          > DB 0
 27+  CDA4 00          > DB 0
 27+  CDA5 00          > DB 0
 27+  CDA6 00          > DB 0
 27+  CDA7 00          > DB 0
 27+  CDA8 00          > DB 0
 27+  CDA9 00          > DB 0
 27+  CDAA 00          > DB 0
 27+  CDAB 00          > DB 0
 27+  CDAC 00          > DB 0
 27+  CDAD 00          > DB 0
 27+  CDAE 00          > DB 0
 27+  CDAF 00          > DB 0
 27+  CDB0 00          > DB 0
 27+  CDB1 00          > DB 0
 27+  CDB2 00          > DB 0
 27+  CDB3 00          > DB 0
 27+  CDB4 00          > DB 0
 27+  CDB5 00          > DB 0
 27+  CDB6 00          > DB 0
 27+  CDB7 00          > DB 0
 27+  CDB8 00          > DB 0
 27+  CDB9 00          > DB 0
 27+  CDBA 00          > DB 0
 27+  CDBB 00          > DB 0
 27+  CDBC 00          > DB 0
 27+  CDBD 00          > DB 0
 27+  CDBE 00          > DB 0
 27+  CDBF 00          > DB 0
 27+  CDC0 00          > DB 0
 27+  CDC1 00          > DB 0
 27+  CDC2 00          > DB 0
 27+  CDC3 00          > DB 0
 27+  CDC4 00          > DB 0
 27+  CDC5 00          > DB 0
 27+  CDC6 00          > DB 0
 27+  CDC7 00          > DB 0
 27+  CDC8 00          > DB 0
 27+  CDC9 00          > DB 0
 27+  CDCA 00          > DB 0
 27+  CDCB 00          > DB 0
 27+  CDCC 00          > DB 0
 27+  CDCD 00          > DB 0
 27+  CDCE 00          > DB 0
 27+  CDCF 00          > DB 0
 27+  CDD0 00          > DB 0
 27+  CDD1 00          > DB 0
 27+  CDD2 00          > DB 0
 27+  CDD3 00          > DB 0
 27+  CDD4 00          > DB 0
 27+  CDD5 00          > DB 0
 27+  CDD6 00          > DB 0
 27+  CDD7 00          > DB 0
 27+  CDD8 00          > DB 0
 27+  CDD9 00          > DB 0
 27+  CDDA 00          > DB 0
 27+  CDDB 00          > DB 0
 27+  CDDC 00          > DB 0
 27+  CDDD 00          > DB 0
 27+  CDDE 00          > DB 0
 27+  CDDF 00          > DB 0
 27+  CDE0 00          > DB 0
 27+  CDE1 00          > DB 0
 27+  CDE2 00          > DB 0
 27+  CDE3 00          > DB 0
 27+  CDE4 00          > DB 0
 27+  CDE5 00          > DB 0
 27+  CDE6 00          > DB 0
 27+  CDE7 00          > DB 0
 27+  CDE8 00          > DB 0
 27+  CDE9 00          > DB 0
 27+  CDEA 00          > DB 0
 27+  CDEB 00          > DB 0
 27+  CDEC 00          > DB 0
 27+  CDED 00          > DB 0
 27+  CDEE 00          > DB 0
 27+  CDEF 00          > DB 0
 27+  CDF0 00          > DB 0
 27+  CDF1 00          > DB 0
 27+  CDF2 00          > DB 0
 27+  CDF3 00          > DB 0
 27+  CDF4 00          > DB 0
 27+  CDF5 00          > DB 0
 27+  CDF6 00          > DB 0
 27+  CDF7 00          > DB 0
 27+  CDF8 00          > DB 0
 27+  CDF9 00          > DB 0
 27+  CDFA 00          > DB 0
 27+  CDFB 00          > DB 0
 27+  CDFC 00          > DB 0
 27+  CDFD 00          > DB 0
 27+  CDFE 00          > DB 0
 27+  CDFF 00          > DB 0
 27+  CE00 00          > DB 0
 27+  CE01 00          > DB 0
 27+  CE02 00          > DB 0
 27+  CE03 00          > DB 0
 27+  CE04 00          > DB 0
 27+  CE05 00          > DB 0
 27+  CE06 00          > DB 0
 27+  CE07 00          > DB 0
 27+  CE08 00          > DB 0
 27+  CE09 00          > DB 0
 27+  CE0A 00          > DB 0
 27+  CE0B 00          > DB 0
 27+  CE0C 00          > DB 0
 27+  CE0D 00          > DB 0
 27+  CE0E 00          > DB 0
 27+  CE0F 00          > DB 0
 27+  CE10 00          > DB 0
 27+  CE11 00          > DB 0
 27+  CE12 00          > DB 0
 27+  CE13 00          > DB 0
 27+  CE14 00          > DB 0
 27+  CE15 00          > DB 0
 27+  CE16 00          > DB 0
 27+  CE17 00          > DB 0
 27+  CE18 00          > DB 0
 27+  CE19 00          > DB 0
 27+  CE1A 00          > DB 0
 27+  CE1B 00          > DB 0
 27+  CE1C 00          > DB 0
 27+  CE1D 00          > DB 0
 27+  CE1E 00          > DB 0
 27+  CE1F 00          > DB 0
 27+  CE20 00          > DB 0
 27+  CE21 00          > DB 0
 27+  CE22 00          > DB 0
 27+  CE23 00          > DB 0
 27+  CE24 00          > DB 0
 27+  CE25 00          > DB 0
 27+  CE26 00          > DB 0
 27+  CE27 00          > DB 0
 27+  CE28 00          > DB 0
 27+  CE29 00          > DB 0
 27+  CE2A 00          > DB 0
 27+  CE2B 00          > DB 0
 27+  CE2C 00          > DB 0
 27+  CE2D 00          > DB 0
 27+  CE2E 00          > DB 0
 27+  CE2F 00          > DB 0
 27+  CE30 00          > DB 0
 27+  CE31 00          > DB 0
 27+  CE32 00          > DB 0
 27+  CE33 00          > DB 0
 27+  CE34 00          > DB 0
 27+  CE35 00          > DB 0
 27+  CE36 00          > DB 0
 27+  CE37 00          > DB 0
 27+  CE38 00          > DB 0
 27+  CE39 00          > DB 0
 27+  CE3A 00          > DB 0
 27+  CE3B 00          > DB 0
 27+  CE3C 00          > DB 0
 27+  CE3D 00          > DB 0
 27+  CE3E 00          > DB 0
 27+  CE3F 00          > DB 0
 27+  CE40 00          > DB 0
 27+  CE41 00          > DB 0
 27+  CE42 00          > DB 0
 27+  CE43 00          > DB 0
 27+  CE44 00          > DB 0
 27+  CE45 00          > DB 0
 27+  CE46 00          > DB 0
 27+  CE47 00          > DB 0
 27+  CE48 00          > DB 0
 27+  CE49 00          > DB 0
 27+  CE4A 00          > DB 0
 27+  CE4B 00          > DB 0
 27+  CE4C 00          > DB 0
 27+  CE4D 00          > DB 0
 27+  CE4E 00          > DB 0
 27+  CE4F 00          > DB 0
 27+  CE50 00          > DB 0
 27+  CE51 00          > DB 0
 27+  CE52 00          > DB 0
 27+  CE53 00          > DB 0
 27+  CE54 00          > DB 0
 27+  CE55 00          > DB 0
 27+  CE56 00          > DB 0
 27+  CE57 00          > DB 0
 27+  CE58 00          > DB 0
 27+  CE59 00          > DB 0
 27+  CE5A 00          > DB 0
 27+  CE5B 00          > DB 0
 27+  CE5C 00          > DB 0
 27+  CE5D 00          > DB 0
 27+  CE5E 00          > DB 0
 27+  CE5F 00          > DB 0
 27+  CE60 00          > DB 0
 27+  CE61 00          > DB 0
 27+  CE62 00          > DB 0
 27+  CE63 00          > DB 0
 27+  CE64 00          > DB 0
 27+  CE65 00          > DB 0
 27+  CE66 00          > DB 0
 27+  CE67 00          > DB 0
 27+  CE68 00          > DB 0
 27+  CE69 00          > DB 0
 27+  CE6A 00          > DB 0
 27+  CE6B 00          > DB 0
 27+  CE6C 00          > DB 0
 27+  CE6D 00          > DB 0
 27+  CE6E 00          > DB 0
 27+  CE6F 00          > DB 0
 27+  CE70 00          > DB 0
 27+  CE71 00          > DB 0
 27+  CE72 00          > DB 0
 27+  CE73 00          > DB 0
 27+  CE74 00          > DB 0
 27+  CE75 00          > DB 0
 27+  CE76 00          > DB 0
 27+  CE77 00          > DB 0
 27+  CE78 00          > DB 0
 27+  CE79 00          > DB 0
 27+  CE7A 00          > DB 0
 27+  CE7B 00          > DB 0
 27+  CE7C 00          > DB 0
 27+  CE7D 00          > DB 0
 27+  CE7E 00          > DB 0
 27+  CE7F 00          > DB 0
 27+  CE80 00          > DB 0
 27+  CE81 00          > DB 0
 27+  CE82 00          > DB 0
 27+  CE83 00          > DB 0
 27+  CE84 00          > DB 0
 27+  CE85 00          > DB 0
 27+  CE86 00          > DB 0
 27+  CE87 00          > DB 0
 27+  CE88 00          > DB 0
 27+  CE89 00          > DB 0
 27+  CE8A 00          > DB 0
 27+  CE8B 00          > DB 0
 27+  CE8C 00          > DB 0
 27+  CE8D 00          > DB 0
 27+  CE8E 00          > DB 0
 27+  CE8F 00          > DB 0
 27+  CE90 00          > DB 0
 27+  CE91 00          > DB 0
 27+  CE92 00          > DB 0
 27+  CE93 00          > DB 0
 27+  CE94 00          > DB 0
 27+  CE95 00          > DB 0
 27+  CE96 00          > DB 0
 27+  CE97 00          > DB 0
 27+  CE98 00          > DB 0
 27+  CE99 00          > DB 0
 27+  CE9A 00          > DB 0
 27+  CE9B 00          > DB 0
 27+  CE9C 00          > DB 0
 27+  CE9D 00          > DB 0
 27+  CE9E 00          > DB 0
 27+  CE9F 00          > DB 0
 27+  CEA0 00          > DB 0
 27+  CEA1 00          > DB 0
 27+  CEA2 00          > DB 0
 27+  CEA3 00          > DB 0
 27+  CEA4 00          > DB 0
 27+  CEA5 00          > DB 0
 27+  CEA6 00          > DB 0
 27+  CEA7 00          > DB 0
 27+  CEA8 00          > DB 0
 27+  CEA9 00          > DB 0
 27+  CEAA 00          > DB 0
 27+  CEAB 00          > DB 0
 27+  CEAC 00          > DB 0
 27+  CEAD 00          > DB 0
 27+  CEAE 00          > DB 0
 27+  CEAF 00          > DB 0
 27+  CEB0 00          > DB 0
 27+  CEB1 00          > DB 0
 27+  CEB2 00          > DB 0
 27+  CEB3 00          > DB 0
 27+  CEB4 00          > DB 0
 27+  CEB5 00          > DB 0
 27+  CEB6 00          > DB 0
 27+  CEB7 00          > DB 0
 27+  CEB8 00          > DB 0
 27+  CEB9 00          > DB 0
 27+  CEBA 00          > DB 0
 27+  CEBB 00          > DB 0
 27+  CEBC 00          > DB 0
 27+  CEBD 00          > DB 0
 27+  CEBE 00          > DB 0
 27+  CEBF 00          > DB 0
 27+  CEC0 00          > DB 0
 27+  CEC1 00          > DB 0
 27+  CEC2 00          > DB 0
 27+  CEC3 00          > DB 0
 27+  CEC4 00          > DB 0
 27+  CEC5 00          > DB 0
 27+  CEC6 00          > DB 0
 27+  CEC7 00          > DB 0
 27+  CEC8 00          > DB 0
 27+  CEC9 00          > DB 0
 27+  CECA 00          > DB 0
 27+  CECB 00          > DB 0
 27+  CECC 00          > DB 0
 27+  CECD 00          > DB 0
 27+  CECE 00          > DB 0
 27+  CECF 00          > DB 0
 27+  CED0 00          > DB 0
 27+  CED1 00          > DB 0
 27+  CED2 00          > DB 0
 27+  CED3 00          > DB 0
 27+  CED4 00          > DB 0
 27+  CED5 00          > DB 0
 27+  CED6 00          > DB 0
 27+  CED7 00          > DB 0
 27+  CED8 00          > DB 0
 27+  CED9 00          > DB 0
 27+  CEDA 00          > DB 0
 27+  CEDB 00          > DB 0
 27+  CEDC 00          > DB 0
 27+  CEDD 00          > DB 0
 27+  CEDE 00          > DB 0
 27+  CEDF 00          > DB 0
 27+  CEE0 00          > DB 0
 27+  CEE1 00          > DB 0
 27+  CEE2 00          > DB 0
 27+  CEE3 00          > DB 0
 27+  CEE4 00          > DB 0
 27+  CEE5 00          > DB 0
 27+  CEE6 00          > DB 0
 27+  CEE7 00          > DB 0
 27+  CEE8 00          > DB 0
 27+  CEE9 00          > DB 0
 27+  CEEA 00          > DB 0
 27+  CEEB 00          > DB 0
 27+  CEEC 00          > DB 0
 27+  CEED 00          > DB 0
 27+  CEEE 00          > DB 0
 27+  CEEF 00          > DB 0
 27+  CEF0 00          > DB 0
 27+  CEF1 00          > DB 0
 27+  CEF2 00          > DB 0
 27+  CEF3 00          > DB 0
 27+  CEF4 00          > DB 0
 27+  CEF5 00          > DB 0
 27+  CEF6 00          > DB 0
 27+  CEF7 00          > DB 0
 27+  CEF8 00          > DB 0
 27+  CEF9 00          > DB 0
 27+  CEFA 00          > DB 0
 27+  CEFB 00          > DB 0
 27+  CEFC 00          > DB 0
 27+  CEFD 00          > DB 0
 27+  CEFE 00          > DB 0
 27+  CEFF 00          > DB 0
 27+  CF00 00          > DB 0
 27+  CF01 00          > DB 0
 27+  CF02 00          > DB 0
 27+  CF03 00          > DB 0
 27+  CF04 00          > DB 0
 27+  CF05 00          > DB 0
 27+  CF06 00          > DB 0
 27+  CF07 00          > DB 0
 27+  CF08 00          > DB 0
 27+  CF09 00          > DB 0
 27+  CF0A 00          > DB 0
 27+  CF0B 00          > DB 0
 27+  CF0C 00          > DB 0
 27+  CF0D 00          > DB 0
 27+  CF0E 00          > DB 0
 27+  CF0F 00          > DB 0
 27+  CF10 00          > DB 0
 27+  CF11 00          > DB 0
 27+  CF12 00          > DB 0
 27+  CF13 00          > DB 0
 27+  CF14 00          > DB 0
 27+  CF15 00          > DB 0
 27+  CF16 00          > DB 0
 27+  CF17 00          > DB 0
 27+  CF18 00          > DB 0
 27+  CF19 00          > DB 0
 27+  CF1A 00          > DB 0
 27+  CF1B 00          > DB 0
 27+  CF1C 00          > DB 0
 27+  CF1D 00          > DB 0
 27+  CF1E 00          > DB 0
 27+  CF1F 00          > DB 0
 27+  CF20 00          > DB 0
 27+  CF21 00          > DB 0
 27+  CF22 00          > DB 0
 27+  CF23 00          > DB 0
 27+  CF24 00          > DB 0
 27+  CF25 00          > DB 0
 27+  CF26 00          > DB 0
 27+  CF27 00          > DB 0
 27+  CF28 00          > DB 0
 27+  CF29 00          > DB 0
 27+  CF2A 00          > DB 0
 27+  CF2B 00          > DB 0
 27+  CF2C 00          > DB 0
 27+  CF2D 00          > DB 0
 27+  CF2E 00          > DB 0
 27+  CF2F 00          > DB 0
 27+  CF30 00          > DB 0
 27+  CF31 00          > DB 0
 27+  CF32 00          > DB 0
 27+  CF33 00          > DB 0
 27+  CF34 00          > DB 0
 27+  CF35 00          > DB 0
 27+  CF36 00          > DB 0
 27+  CF37 00          > DB 0
 27+  CF38 00          > DB 0
 27+  CF39 00          > DB 0
 27+  CF3A 00          > DB 0
 27+  CF3B 00          > DB 0
 27+  CF3C 00          > DB 0
 27+  CF3D 00          > DB 0
 27+  CF3E 00          > DB 0
 27+  CF3F 00          > DB 0
 27+  CF40 00          > DB 0
 27+  CF41 00          > DB 0
 27+  CF42 00          > DB 0
 27+  CF43 00          > DB 0
 27+  CF44 00          > DB 0
 27+  CF45 00          > DB 0
 27+  CF46 00          > DB 0
 27+  CF47 00          > DB 0
 27+  CF48 00          > DB 0
 27+  CF49 00          > DB 0
 27+  CF4A 00          > DB 0
 27+  CF4B 00          > DB 0
 27+  CF4C 00          > DB 0
 27+  CF4D 00          > DB 0
 27+  CF4E 00          > DB 0
 27+  CF4F 00          > DB 0
 27+  CF50 00          > DB 0
 27+  CF51 00          > DB 0
 27+  CF52 00          > DB 0
 27+  CF53 00          > DB 0
 27+  CF54 00          > DB 0
 27+  CF55 00          > DB 0
 27+  CF56 00          > DB 0
 27+  CF57 00          > DB 0
 27+  CF58 00          > DB 0
 27+  CF59 00          > DB 0
 27+  CF5A 00          > DB 0
 27+  CF5B 00          > DB 0
 27+  CF5C 00          > DB 0
 27+  CF5D 00          > DB 0
 27+  CF5E 00          > DB 0
 27+  CF5F 00          > DB 0
 27+  CF60 00          > DB 0
 27+  CF61 00          > DB 0
 27+  CF62 00          > DB 0
 27+  CF63 00          > DB 0
 27+  CF64 00          > DB 0
 27+  CF65 00          > DB 0
 27+  CF66 00          > DB 0
 27+  CF67 00          > DB 0
 27+  CF68 00          > DB 0
 27+  CF69 00          > DB 0
 27+  CF6A 00          > DB 0
 27+  CF6B 00          > DB 0
 27+  CF6C 00          > DB 0
 27+  CF6D 00          > DB 0
 27+  CF6E 00          > DB 0
 27+  CF6F 00          > DB 0
 27+  CF70 00          > DB 0
 27+  CF71 00          > DB 0
 27+  CF72 00          > DB 0
 27+  CF73 00          > DB 0
 27+  CF74 00          > DB 0
 27+  CF75 00          > DB 0
 27+  CF76 00          > DB 0
 27+  CF77 00          > DB 0
 27+  CF78 00          > DB 0
 27+  CF79 00          > DB 0
 27+  CF7A 00          > DB 0
 27+  CF7B 00          > DB 0
 27+  CF7C 00          > DB 0
 27+  CF7D 00          > DB 0
 27+  CF7E 00          > DB 0
 27+  CF7F 00          > DB 0
 27+  CF80 00          > DB 0
 27+  CF81 00          > DB 0
 27+  CF82 00          > DB 0
 27+  CF83 00          > DB 0
 27+  CF84 00          > DB 0
 27+  CF85 00          > DB 0
 27+  CF86 00          > DB 0
 27+  CF87 00          > DB 0
 27+  CF88 00          > DB 0
 27+  CF89 00          > DB 0
 27+  CF8A 00          > DB 0
 27+  CF8B 00          > DB 0
 27+  CF8C 00          > DB 0
 27+  CF8D 00          > DB 0
 27+  CF8E 00          > DB 0
 27+  CF8F 00          > DB 0
 27+  CF90 00          > DB 0
 27+  CF91 00          > DB 0
 27+  CF92 00          > DB 0
 27+  CF93 00          > DB 0
 27+  CF94 00          > DB 0
 27+  CF95 00          > DB 0
 27+  CF96 00          > DB 0
 27+  CF97 00          > DB 0
 27+  CF98 00          > DB 0
 27+  CF99 00          > DB 0
 27+  CF9A 00          > DB 0
 27+  CF9B 00          > DB 0
 27+  CF9C 00          > DB 0
 27+  CF9D 00          > DB 0
 27+  CF9E 00          > DB 0
 27+  CF9F 00          > DB 0
 27+  CFA0 00          > DB 0
 27+  CFA1 00          > DB 0
 27+  CFA2 00          > DB 0
 27+  CFA3 00          > DB 0
 27+  CFA4 00          > DB 0
 27+  CFA5 00          > DB 0
 27+  CFA6 00          > DB 0
 27+  CFA7 00          > DB 0
 27+  CFA8 00          > DB 0
 27+  CFA9 00          > DB 0
 27+  CFAA 00          > DB 0
 27+  CFAB 00          > DB 0
 27+  CFAC 00          > DB 0
 27+  CFAD 00          > DB 0
 27+  CFAE 00          > DB 0
 27+  CFAF 00          > DB 0
 27+  CFB0 00          > DB 0
 27+  CFB1 00          > DB 0
 27+  CFB2 00          > DB 0
 27+  CFB3 00          > DB 0
 27+  CFB4 00          > DB 0
 27+  CFB5 00          > DB 0
 27+  CFB6 00          > DB 0
 27+  CFB7 00          > DB 0
 27+  CFB8 00          > DB 0
 27+  CFB9 00          > DB 0
 27+  CFBA 00          > DB 0
 27+  CFBB 00          > DB 0
 27+  CFBC 00          > DB 0
 27+  CFBD 00          > DB 0
 27+  CFBE 00          > DB 0
 27+  CFBF 00          > DB 0
 27+  CFC0 00          > DB 0
 27+  CFC1 00          > DB 0
 27+  CFC2 00          > DB 0
 27+  CFC3 00          > DB 0
 27+  CFC4 00          > DB 0
 27+  CFC5 00          > DB 0
 27+  CFC6 00          > DB 0
 27+  CFC7 00          > DB 0
 27+  CFC8 00          > DB 0
 27+  CFC9 00          > DB 0
 27+  CFCA 00          > DB 0
 27+  CFCB 00          > DB 0
 27+  CFCC 00          > DB 0
 27+  CFCD 00          > DB 0
 27+  CFCE 00          > DB 0
 27+  CFCF 00          > DB 0
 27+  CFD0 00          > DB 0
 27+  CFD1 00          > DB 0
 27+  CFD2 00          > DB 0
 27+  CFD3 00          > DB 0
 27+  CFD4 00          > DB 0
 27+  CFD5 00          > DB 0
 27+  CFD6 00          > DB 0
 27+  CFD7 00          > DB 0
 27+  CFD8 00          > DB 0
 27+  CFD9 00          > DB 0
 27+  CFDA 00          > DB 0
 27+  CFDB 00          > DB 0
 27+  CFDC 00          > DB 0
 27+  CFDD 00          > DB 0
 27+  CFDE 00          > DB 0
 27+  CFDF 00          > DB 0
 27+  CFE0 00          > DB 0
 27+  CFE1 00          > DB 0
 27+  CFE2 00          > DB 0
 27+  CFE3 00          > DB 0
 27+  CFE4 00          > DB 0
 27+  CFE5 00          > DB 0
 27+  CFE6 00          > DB 0
 27+  CFE7 00          > DB 0
 27+  CFE8 00          > DB 0
 27+  CFE9 00          > DB 0
 27+  CFEA 00          > DB 0
 27+  CFEB 00          > DB 0
 27+  CFEC 00          > DB 0
 27+  CFED 00          > DB 0
 27+  CFEE 00          > DB 0
 27+  CFEF 00          > DB 0
 27+  CFF0 00          > DB 0
 27+  CFF1 00          > DB 0
 27+  CFF2 00          > DB 0
 27+  CFF3 00          > DB 0
 27+  CFF4 00          > DB 0
 27+  CFF5 00          > DB 0
 27+  CFF6 00          > DB 0
 27+  CFF7 00          > DB 0
 27+  CFF8 00          > DB 0
 27+  CFF9 00          > DB 0
 27+  CFFA 00          > DB 0
 27+  CFFB 00          > DB 0
 27+  CFFC 00          > DB 0
 27+  CFFD 00          > DB 0
 27+  CFFE 00          > DB 0
 27+  CFFF 00          > DB 0
 27+  D000 00          > DB 0
 27+  D001 00          > DB 0
 27+  D002 00          > DB 0
 27+  D003 00          > DB 0
 27+  D004 00          > DB 0
 27+  D005 00          > DB 0
 27+  D006 00          > DB 0
 27+  D007 00          > DB 0
 27+  D008 00          > DB 0
 27+  D009 00          > DB 0
 27+  D00A 00          > DB 0
 27+  D00B 00          > DB 0
 27+  D00C 00          > DB 0
 27+  D00D 00          > DB 0
 27+  D00E 00          > DB 0
 27+  D00F 00          > DB 0
 27+  D010 00          > DB 0
 27+  D011 00          > DB 0
 27+  D012 00          > DB 0
 27+  D013 00          > DB 0
 27+  D014 00          > DB 0
 27+  D015 00          > DB 0
 27+  D016 00          > DB 0
 27+  D017 00          > DB 0
 27+  D018 00          > DB 0
 27+  D019 00          > DB 0
 27+  D01A 00          > DB 0
 27+  D01B 00          > DB 0
 27+  D01C 00          > DB 0
 27+  D01D 00          > DB 0
 27+  D01E 00          > DB 0
 27+  D01F 00          > DB 0
 27+  D020 00          > DB 0
 27+  D021 00          > DB 0
 27+  D022 00          > DB 0
 27+  D023 00          > DB 0
 27+  D024 00          > DB 0
 27+  D025 00          > DB 0
 27+  D026 00          > DB 0
 27+  D027 00          > DB 0
 27+  D028 00          > DB 0
 27+  D029 00          > DB 0
 27+  D02A 00          > DB 0
 27+  D02B 00          > DB 0
 27+  D02C 00          > DB 0
 27+  D02D 00          > DB 0
 27+  D02E 00          > DB 0
 27+  D02F 00          > DB 0
 27+  D030 00          > DB 0
 27+  D031 00          > DB 0
 27+  D032 00          > DB 0
 27+  D033 00          > DB 0
 27+  D034 00          > DB 0
 27+  D035 00          > DB 0
 27+  D036 00          > DB 0
 27+  D037 00          > DB 0
 27+  D038 00          > DB 0
 27+  D039 00          > DB 0
 27+  D03A 00          > DB 0
 27+  D03B 00          > DB 0
 27+  D03C 00          > DB 0
 27+  D03D 00          > DB 0
 27+  D03E 00          > DB 0
 27+  D03F 00          > DB 0
 27+  D040 00          > DB 0
 27+  D041 00          > DB 0
 27+  D042 00          > DB 0
 27+  D043 00          > DB 0
 27+  D044 00          > DB 0
 27+  D045 00          > DB 0
 27+  D046 00          > DB 0
 27+  D047 00          > DB 0
 27+  D048 00          > DB 0
 27+  D049 00          > DB 0
 27+  D04A 00          > DB 0
 27+  D04B 00          > DB 0
 27+  D04C 00          > DB 0
 27+  D04D 00          > DB 0
 27+  D04E 00          > DB 0
 27+  D04F 00          > DB 0
 27+  D050 00          > DB 0
 27+  D051 00          > DB 0
 27+  D052 00          > DB 0
 27+  D053 00          > DB 0
 27+  D054 00          > DB 0
 27+  D055 00          > DB 0
 27+  D056 00          > DB 0
 27+  D057 00          > DB 0
 27+  D058 00          > DB 0
 27+  D059 00          > DB 0
 27+  D05A 00          > DB 0
 27+  D05B 00          > DB 0
 27+  D05C 00          > DB 0
 27+  D05D 00          > DB 0
 27+  D05E 00          > DB 0
 27+  D05F 00          > DB 0
 27+  D060 00          > DB 0
 27+  D061 00          > DB 0
 27+  D062 00          > DB 0
 27+  D063 00          > DB 0
 27+  D064 00          > DB 0
 27+  D065 00          > DB 0
 27+  D066 00          > DB 0
 27+  D067 00          > DB 0
 27+  D068 00          > DB 0
 27+  D069 00          > DB 0
 27+  D06A 00          > DB 0
 27+  D06B 00          > DB 0
 27+  D06C 00          > DB 0
 27+  D06D 00          > DB 0
 27+  D06E 00          > DB 0
 27+  D06F 00          > DB 0
 27+  D070 00          > DB 0
 27+  D071 00          > DB 0
 27+  D072 00          > DB 0
 27+  D073 00          > DB 0
 27+  D074 00          > DB 0
 27+  D075 00          > DB 0
 27+  D076 00          > DB 0
 27+  D077 00          > DB 0
 27+  D078 00          > DB 0
 27+  D079 00          > DB 0
 27+  D07A 00          > DB 0
 27+  D07B 00          > DB 0
 27+  D07C 00          > DB 0
 27+  D07D 00          > DB 0
 27+  D07E 00          > DB 0
 27+  D07F 00          > DB 0
 27+  D080 00          > DB 0
 27+  D081 00          > DB 0
 27+  D082 00          > DB 0
 27+  D083 00          > DB 0
 27+  D084 00          > DB 0
 27+  D085 00          > DB 0
 27+  D086 00          > DB 0
 27+  D087 00          > DB 0
 27+  D088 00          > DB 0
 27+  D089 00          > DB 0
 27+  D08A 00          > DB 0
 27+  D08B 00          > DB 0
 27+  D08C 00          > DB 0
 27+  D08D 00          > DB 0
 27+  D08E 00          > DB 0
 27+  D08F 00          > DB 0
 27+  D090 00          > DB 0
 27+  D091 00          > DB 0
 27+  D092 00          > DB 0
 27+  D093 00          > DB 0
 27+  D094 00          > DB 0
 27+  D095 00          > DB 0
 27+  D096 00          > DB 0
 27+  D097 00          > DB 0
 27+  D098 00          > DB 0
 27+  D099 00          > DB 0
 27+  D09A 00          > DB 0
 27+  D09B 00          > DB 0
 27+  D09C 00          > DB 0
 27+  D09D 00          > DB 0
 27+  D09E 00          > DB 0
 27+  D09F 00          > DB 0
 27+  D0A0 00          > DB 0
 27+  D0A1 00          > DB 0
 27+  D0A2 00          > DB 0
 27+  D0A3 00          > DB 0
 27+  D0A4 00          > DB 0
 27+  D0A5 00          > DB 0
 27+  D0A6 00          > DB 0
 27+  D0A7 00          > DB 0
 27+  D0A8 00          > DB 0
 27+  D0A9 00          > DB 0
 27+  D0AA 00          > DB 0
 27+  D0AB 00          > DB 0
 27+  D0AC 00          > DB 0
 27+  D0AD 00          > DB 0
 27+  D0AE 00          > DB 0
 27+  D0AF 00          > DB 0
 27+  D0B0 00          > DB 0
 27+  D0B1 00          > DB 0
 27+  D0B2 00          > DB 0
 27+  D0B3 00          > DB 0
 27+  D0B4 00          > DB 0
 27+  D0B5 00          > DB 0
 27+  D0B6 00          > DB 0
 27+  D0B7 00          > DB 0
 27+  D0B8 00          > DB 0
 27+  D0B9 00          > DB 0
 27+  D0BA 00          > DB 0
 27+  D0BB 00          > DB 0
 27+  D0BC 00          > DB 0
 27+  D0BD 00          > DB 0
 27+  D0BE 00          > DB 0
 27+  D0BF 00          > DB 0
 27+  D0C0 00          > DB 0
 27+  D0C1 00          > DB 0
 27+  D0C2 00          > DB 0
 27+  D0C3 00          > DB 0
 27+  D0C4 00          > DB 0
 27+  D0C5 00          > DB 0
 27+  D0C6 00          > DB 0
 27+  D0C7 00          > DB 0
 27+  D0C8 00          > DB 0
 27+  D0C9 00          > DB 0
 27+  D0CA 00          > DB 0
 27+  D0CB 00          > DB 0
 27+  D0CC 00          > DB 0
 27+  D0CD 00          > DB 0
 27+  D0CE 00          > DB 0
 27+  D0CF 00          > DB 0
 27+  D0D0 00          > DB 0
 27+  D0D1 00          > DB 0
 27+  D0D2 00          > DB 0
 27+  D0D3 00          > DB 0
 27+  D0D4 00          > DB 0
 27+  D0D5 00          > DB 0
 27+  D0D6 00          > DB 0
 27+  D0D7 00          > DB 0
 27+  D0D8 00          > DB 0
 27+  D0D9 00          > DB 0
 27+  D0DA 00          > DB 0
 27+  D0DB 00          > DB 0
 27+  D0DC 00          > DB 0
 27+  D0DD 00          > DB 0
 27+  D0DE 00          > DB 0
 27+  D0DF 00          > DB 0
 27+  D0E0 00          > DB 0
 27+  D0E1 00          > DB 0
 27+  D0E2 00          > DB 0
 27+  D0E3 00          > DB 0
 27+  D0E4 00          > DB 0
 27+  D0E5 00          > DB 0
 27+  D0E6 00          > DB 0
 27+  D0E7 00          > DB 0
 27+  D0E8 00          > DB 0
 27+  D0E9 00          > DB 0
 27+  D0EA 00          > DB 0
 27+  D0EB 00          > DB 0
 27+  D0EC 00          > DB 0
 27+  D0ED 00          > DB 0
 27+  D0EE 00          > DB 0
 27+  D0EF 00          > DB 0
 27+  D0F0 00          > DB 0
 27+  D0F1 00          > DB 0
 27+  D0F2 00          > DB 0
 27+  D0F3 00          > DB 0
 27+  D0F4 00          > DB 0
 27+  D0F5 00          > DB 0
 27+  D0F6 00          > DB 0
 27+  D0F7 00          > DB 0
 27+  D0F8 00          > DB 0
 27+  D0F9 00          > DB 0
 27+  D0FA 00          > DB 0
 27+  D0FB 00          > DB 0
 27+  D0FC 00          > DB 0
 27+  D0FD 00          > DB 0
 27+  D0FE 00          > DB 0
 27+  D0FF 00          > DB 0
 27+  D100 00          > DB 0
 27+  D101 00          > DB 0
 27+  D102 00          > DB 0
 27+  D103 00          > DB 0
 27+  D104 00          > DB 0
 27+  D105 00          > DB 0
 27+  D106 00          > DB 0
 27+  D107 00          > DB 0
 27+  D108 00          > DB 0
 27+  D109 00          > DB 0
 27+  D10A 00          > DB 0
 27+  D10B 00          > DB 0
 27+  D10C 00          > DB 0
 27+  D10D 00          > DB 0
 27+  D10E 00          > DB 0
 27+  D10F 00          > DB 0
 27+  D110 00          > DB 0
 27+  D111 00          > DB 0
 27+  D112 00          > DB 0
 27+  D113 00          > DB 0
 27+  D114 00          > DB 0
 27+  D115 00          > DB 0
 27+  D116 00          > DB 0
 27+  D117 00          > DB 0
 27+  D118 00          > DB 0
 27+  D119 00          > DB 0
 27+  D11A 00          > DB 0
 27+  D11B 00          > DB 0
 27+  D11C 00          > DB 0
 27+  D11D 00          > DB 0
 27+  D11E 00          > DB 0
 27+  D11F 00          > DB 0
 27+  D120 00          > DB 0
 27+  D121 00          > DB 0
 27+  D122 00          > DB 0
 27+  D123 00          > DB 0
 27+  D124 00          > DB 0
 27+  D125 00          > DB 0
 27+  D126 00          > DB 0
 27+  D127 00          > DB 0
 27+  D128 00          > DB 0
 27+  D129 00          > DB 0
 27+  D12A 00          > DB 0
 27+  D12B 00          > DB 0
 27+  D12C 00          > DB 0
 27+  D12D 00          > DB 0
 27+  D12E 00          > DB 0
 27+  D12F 00          > DB 0
 27+  D130 00          > DB 0
 27+  D131 00          > DB 0
 27+  D132 00          > DB 0
 27+  D133 00          > DB 0
 27+  D134 00          > DB 0
 27+  D135 00          > DB 0
 27+  D136 00          > DB 0
 27+  D137 00          > DB 0
 27+  D138 00          > DB 0
 27+  D139 00          > DB 0
 27+  D13A 00          > DB 0
 27+  D13B 00          > DB 0
 27+  D13C 00          > DB 0
 27+  D13D 00          > DB 0
 27+  D13E 00          > DB 0
 27+  D13F 00          > DB 0
 27+  D140 00          > DB 0
 27+  D141 00          > DB 0
 27+  D142 00          > DB 0
 27+  D143 00          > DB 0
 27+  D144 00          > DB 0
 27+  D145 00          > DB 0
 27+  D146 00          > DB 0
 27+  D147 00          > DB 0
 27+  D148 00          > DB 0
 27+  D149 00          > DB 0
 27+  D14A 00          > DB 0
 27+  D14B 00          > DB 0
 27+  D14C 00          > DB 0
 27+  D14D 00          > DB 0
 27+  D14E 00          > DB 0
 27+  D14F 00          > DB 0
 27+  D150 00          > DB 0
 27+  D151 00          > DB 0
 27+  D152 00          > DB 0
 27+  D153 00          > DB 0
 27+  D154 00          > DB 0
 27+  D155 00          > DB 0
 27+  D156 00          > DB 0
 27+  D157 00          > DB 0
 27+  D158 00          > DB 0
 27+  D159 00          > DB 0
 27+  D15A 00          > DB 0
 27+  D15B 00          > DB 0
 27+  D15C 00          > DB 0
 27+  D15D 00          > DB 0
 27+  D15E 00          > DB 0
 27+  D15F 00          > DB 0
 27+  D160 00          > DB 0
 27+  D161 00          > DB 0
 27+  D162 00          > DB 0
 27+  D163 00          > DB 0
 27+  D164 00          > DB 0
 27+  D165 00          > DB 0
 27+  D166 00          > DB 0
 27+  D167 00          > DB 0
 27+  D168 00          > DB 0
 27+  D169 00          > DB 0
 27+  D16A 00          > DB 0
 27+  D16B 00          > DB 0
 27+  D16C 00          > DB 0
 27+  D16D 00          > DB 0
 27+  D16E 00          > DB 0
 27+  D16F 00          > DB 0
 27+  D170 00          > DB 0
 27+  D171 00          > DB 0
 27+  D172 00          > DB 0
 27+  D173 00          > DB 0
 27+  D174 00          > DB 0
 27+  D175 00          > DB 0
 27+  D176 00          > DB 0
 27+  D177 00          > DB 0
 27+  D178 00          > DB 0
 27+  D179 00          > DB 0
 27+  D17A 00          > DB 0
 27+  D17B 00          > DB 0
 27+  D17C 00          > DB 0
 27+  D17D 00          > DB 0
 27+  D17E 00          > DB 0
 27+  D17F 00          > DB 0
 27+  D180 00          > DB 0
 27+  D181 00          > DB 0
 27+  D182 00          > DB 0
 27+  D183 00          > DB 0
 27+  D184 00          > DB 0
 27+  D185 00          > DB 0
 27+  D186 00          > DB 0
 27+  D187 00          > DB 0
 27+  D188 00          > DB 0
 27+  D189 00          > DB 0
 27+  D18A 00          > DB 0
 27+  D18B 00          > DB 0
 27+  D18C 00          > DB 0
 27+  D18D 00          > DB 0
 27+  D18E 00          > DB 0
 27+  D18F 00          > DB 0
 27+  D190 00          > DB 0
 27+  D191 00          > DB 0
 27+  D192 00          > DB 0
 27+  D193 00          > DB 0
 27+  D194 00          > DB 0
 27+  D195 00          > DB 0
 27+  D196 00          > DB 0
 27+  D197 00          > DB 0
 27+  D198 00          > DB 0
 27+  D199 00          > DB 0
 27+  D19A 00          > DB 0
 27+  D19B 00          > DB 0
 27+  D19C 00          > DB 0
 27+  D19D 00          > DB 0
 27+  D19E 00          > DB 0
 27+  D19F 00          > DB 0
 27+  D1A0 00          > DB 0
 27+  D1A1 00          > DB 0
 27+  D1A2 00          > DB 0
 27+  D1A3 00          > DB 0
 27+  D1A4 00          > DB 0
 27+  D1A5 00          > DB 0
 27+  D1A6 00          > DB 0
 27+  D1A7 00          > DB 0
 27+  D1A8 00          > DB 0
 27+  D1A9 00          > DB 0
 27+  D1AA 00          > DB 0
 27+  D1AB 00          > DB 0
 27+  D1AC 00          > DB 0
 27+  D1AD 00          > DB 0
 27+  D1AE 00          > DB 0
 27+  D1AF 00          > DB 0
 27+  D1B0 00          > DB 0
 27+  D1B1 00          > DB 0
 27+  D1B2 00          > DB 0
 27+  D1B3 00          > DB 0
 27+  D1B4 00          > DB 0
 27+  D1B5 00          > DB 0
 27+  D1B6 00          > DB 0
 27+  D1B7 00          > DB 0
 27+  D1B8 00          > DB 0
 27+  D1B9 00          > DB 0
 27+  D1BA 00          > DB 0
 27+  D1BB 00          > DB 0
 27+  D1BC 00          > DB 0
 27+  D1BD 00          > DB 0
 27+  D1BE 00          > DB 0
 27+  D1BF 00          > DB 0
 27+  D1C0 00          > DB 0
 27+  D1C1 00          > DB 0
 27+  D1C2 00          > DB 0
 27+  D1C3 00          > DB 0
 27+  D1C4 00          > DB 0
 27+  D1C5 00          > DB 0
 27+  D1C6 00          > DB 0
 27+  D1C7 00          > DB 0
 27+  D1C8 00          > DB 0
 27+  D1C9 00          > DB 0
 27+  D1CA 00          > DB 0
 27+  D1CB 00          > DB 0
 27+  D1CC 00          > DB 0
 27+  D1CD 00          > DB 0
 27+  D1CE 00          > DB 0
 27+  D1CF 00          > DB 0
 27+  D1D0 00          > DB 0
 27+  D1D1 00          > DB 0
 27+  D1D2 00          > DB 0
 27+  D1D3 00          > DB 0
 27+  D1D4 00          > DB 0
 27+  D1D5 00          > DB 0
 27+  D1D6 00          > DB 0
 27+  D1D7 00          > DB 0
 27+  D1D8 00          > DB 0
 27+  D1D9 00          > DB 0
 27+  D1DA 00          > DB 0
 27+  D1DB 00          > DB 0
 27+  D1DC 00          > DB 0
 27+  D1DD 00          > DB 0
 27+  D1DE 00          > DB 0
 27+  D1DF 00          > DB 0
 27+  D1E0 00          > DB 0
 27+  D1E1 00          > DB 0
 27+  D1E2 00          > DB 0
 27+  D1E3 00          > DB 0
 27+  D1E4 00          > DB 0
 27+  D1E5 00          > DB 0
 27+  D1E6 00          > DB 0
 27+  D1E7 00          > DB 0
 27+  D1E8 00          > DB 0
 27+  D1E9 00          > DB 0
 27+  D1EA 00          > DB 0
 27+  D1EB 00          > DB 0
 27+  D1EC 00          > DB 0
 27+  D1ED 00          > DB 0
 27+  D1EE 00          > DB 0
 27+  D1EF 00          > DB 0
 27+  D1F0 00          > DB 0
 27+  D1F1 00          > DB 0
 27+  D1F2 00          > DB 0
 27+  D1F3 00          > DB 0
 27+  D1F4 00          > DB 0
 27+  D1F5 00          > DB 0
 27+  D1F6 00          > DB 0
 27+  D1F7 00          > DB 0
 27+  D1F8 00          > DB 0
 27+  D1F9 00          > DB 0
 27+  D1FA 00          > DB 0
 27+  D1FB 00          > DB 0
 27+  D1FC 00          > DB 0
 27+  D1FD 00          > DB 0
 27+  D1FE 00          > DB 0
 27+  D1FF 00          > DB 0
 27+  D200 00          > DB 0
 27+  D201 00          > DB 0
 27+  D202 00          > DB 0
 27+  D203 00          > DB 0
 27+  D204 00          > DB 0
 27+  D205 00          > DB 0
 27+  D206 00          > DB 0
 27+  D207 00          > DB 0
 27+  D208 00          > DB 0
 27+  D209 00          > DB 0
 27+  D20A 00          > DB 0
 27+  D20B 00          > DB 0
 27+  D20C 00          > DB 0
 27+  D20D 00          > DB 0
 27+  D20E 00          > DB 0
 27+  D20F 00          > DB 0
 27+  D210 00          > DB 0
 27+  D211 00          > DB 0
 27+  D212 00          > DB 0
 27+  D213 00          > DB 0
 27+  D214 00          > DB 0
 27+  D215 00          > DB 0
 27+  D216 00          > DB 0
 27+  D217 00          > DB 0
 27+  D218 00          > DB 0
 27+  D219 00          > DB 0
 27+  D21A 00          > DB 0
 27+  D21B 00          > DB 0
 27+  D21C 00          > DB 0
 27+  D21D 00          > DB 0
 27+  D21E 00          > DB 0
 27+  D21F 00          > DB 0
 27+  D220 00          > DB 0
 27+  D221 00          > DB 0
 27+  D222 00          > DB 0
 27+  D223 00          > DB 0
 27+  D224 00          > DB 0
 27+  D225 00          > DB 0
 27+  D226 00          > DB 0
 27+  D227 00          > DB 0
 27+  D228 00          > DB 0
 27+  D229 00          > DB 0
 27+  D22A 00          > DB 0
 27+  D22B 00          > DB 0
 27+  D22C 00          > DB 0
 27+  D22D 00          > DB 0
 27+  D22E 00          > DB 0
 27+  D22F 00          > DB 0
 27+  D230 00          > DB 0
 27+  D231 00          > DB 0
 27+  D232 00          > DB 0
 27+  D233 00          > DB 0
 27+  D234 00          > DB 0
 27+  D235 00          > DB 0
 27+  D236 00          > DB 0
 27+  D237 00          > DB 0
 27+  D238 00          > DB 0
 27+  D239 00          > DB 0
 27+  D23A 00          > DB 0
 27+  D23B 00          > DB 0
 27+  D23C 00          > DB 0
 27+  D23D 00          > DB 0
 27+  D23E 00          > DB 0
 27+  D23F 00          > DB 0
 27+  D240 00          > DB 0
 27+  D241 00          > DB 0
 27+  D242 00          > DB 0
 27+  D243 00          > DB 0
 27+  D244 00          > DB 0
 27+  D245 00          > DB 0
 27+  D246 00          > DB 0
 27+  D247 00          > DB 0
 27+  D248 00          > DB 0
 27+  D249 00          > DB 0
 27+  D24A 00          > DB 0
 27+  D24B 00          > DB 0
 27+  D24C 00          > DB 0
 27+  D24D 00          > DB 0
 27+  D24E 00          > DB 0
 27+  D24F 00          > DB 0
 27+  D250 00          > DB 0
 27+  D251 00          > DB 0
 27+  D252 00          > DB 0
 27+  D253 00          > DB 0
 27+  D254 00          > DB 0
 27+  D255 00          > DB 0
 27+  D256 00          > DB 0
 27+  D257 00          > DB 0
 27+  D258 00          > DB 0
 27+  D259 00          > DB 0
 27+  D25A 00          > DB 0
 27+  D25B 00          > DB 0
 27+  D25C 00          > DB 0
 27+  D25D 00          > DB 0
 27+  D25E 00          > DB 0
 27+  D25F 00          > DB 0
 27+  D260 00          > DB 0
 27+  D261 00          > DB 0
 27+  D262 00          > DB 0
 27+  D263 00          > DB 0
 27+  D264 00          > DB 0
 27+  D265 00          > DB 0
 27+  D266 00          > DB 0
 27+  D267 00          > DB 0
 27+  D268 00          > DB 0
 27+  D269 00          > DB 0
 27+  D26A 00          > DB 0
 27+  D26B 00          > DB 0
 27+  D26C 00          > DB 0
 27+  D26D 00          > DB 0
 27+  D26E 00          > DB 0
 27+  D26F 00          > DB 0
 27+  D270 00          > DB 0
 27+  D271 00          > DB 0
 27+  D272 00          > DB 0
 27+  D273 00          > DB 0
 27+  D274 00          > DB 0
 27+  D275 00          > DB 0
 27+  D276 00          > DB 0
 27+  D277 00          > DB 0
 27+  D278 00          > DB 0
 27+  D279 00          > DB 0
 27+  D27A 00          > DB 0
 27+  D27B 00          > DB 0
 27+  D27C 00          > DB 0
 27+  D27D 00          > DB 0
 27+  D27E 00          > DB 0
 27+  D27F 00          > DB 0
 27+  D280 00          > DB 0
 27+  D281 00          > DB 0
 27+  D282 00          > DB 0
 27+  D283 00          > DB 0
 27+  D284 00          > DB 0
 27+  D285 00          > DB 0
 27+  D286 00          > DB 0
 27+  D287 00          > DB 0
 27+  D288 00          > DB 0
 27+  D289 00          > DB 0
 27+  D28A 00          > DB 0
 27+  D28B 00          > DB 0
 27+  D28C 00          > DB 0
 27+  D28D 00          > DB 0
 27+  D28E 00          > DB 0
 27+  D28F 00          > DB 0
 27+  D290 00          > DB 0
 27+  D291 00          > DB 0
 27+  D292 00          > DB 0
 27+  D293 00          > DB 0
 27+  D294 00          > DB 0
 27+  D295 00          > DB 0
 27+  D296 00          > DB 0
 27+  D297 00          > DB 0
 27+  D298 00          > DB 0
 27+  D299 00          > DB 0
 27+  D29A 00          > DB 0
 27+  D29B 00          > DB 0
 27+  D29C 00          > DB 0
 27+  D29D 00          > DB 0
 27+  D29E 00          > DB 0
 27+  D29F 00          > DB 0
 27+  D2A0 00          > DB 0
 27+  D2A1 00          > DB 0
 27+  D2A2 00          > DB 0
 27+  D2A3 00          > DB 0
 27+  D2A4 00          > DB 0
 27+  D2A5 00          > DB 0
 27+  D2A6 00          > DB 0
 27+  D2A7 00          > DB 0
 27+  D2A8 00          > DB 0
 27+  D2A9 00          > DB 0
 27+  D2AA 00          > DB 0
 27+  D2AB 00          > DB 0
 27+  D2AC 00          > DB 0
 27+  D2AD 00          > DB 0
 27+  D2AE 00          > DB 0
 27+  D2AF 00          > DB 0
 27+  D2B0 00          > DB 0
 27+  D2B1 00          > DB 0
 27+  D2B2 00          > DB 0
 27+  D2B3 00          > DB 0
 27+  D2B4 00          > DB 0
 27+  D2B5 00          > DB 0
 27+  D2B6 00          > DB 0
 27+  D2B7 00          > DB 0
 27+  D2B8 00          > DB 0
 27+  D2B9 00          > DB 0
 27+  D2BA 00          > DB 0
 27+  D2BB 00          > DB 0
 27+  D2BC 00          > DB 0
 27+  D2BD 00          > DB 0
 27+  D2BE 00          > DB 0
 27+  D2BF 00          > DB 0
 27+  D2C0 00          > DB 0
 27+  D2C1 00          > DB 0
 27+  D2C2 00          > DB 0
 27+  D2C3 00          > DB 0
 27+  D2C4 00          > DB 0
 27+  D2C5 00          > DB 0
 27+  D2C6 00          > DB 0
 27+  D2C7 00          > DB 0
 27+  D2C8 00          > DB 0
 27+  D2C9 00          > DB 0
 27+  D2CA 00          > DB 0
 27+  D2CB 00          > DB 0
 27+  D2CC 00          > DB 0
 27+  D2CD 00          > DB 0
 27+  D2CE 00          > DB 0
 27+  D2CF 00          > DB 0
 27+  D2D0 00          > DB 0
 27+  D2D1 00          > DB 0
 27+  D2D2 00          > DB 0
 27+  D2D3 00          > DB 0
 27+  D2D4 00          > DB 0
 27+  D2D5 00          > DB 0
 27+  D2D6 00          > DB 0
 27+  D2D7 00          > DB 0
 27+  D2D8 00          > DB 0
 27+  D2D9 00          > DB 0
 27+  D2DA 00          > DB 0
 27+  D2DB 00          > DB 0
 27+  D2DC 00          > DB 0
 27+  D2DD 00          > DB 0
 27+  D2DE 00          > DB 0
 27+  D2DF 00          > DB 0
 27+  D2E0 00          > DB 0
 27+  D2E1 00          > DB 0
 27+  D2E2 00          > DB 0
 27+  D2E3 00          > DB 0
 27+  D2E4 00          > DB 0
 27+  D2E5 00          > DB 0
 27+  D2E6 00          > DB 0
 27+  D2E7 00          > DB 0
 27+  D2E8 00          > DB 0
 27+  D2E9 00          > DB 0
 27+  D2EA 00          > DB 0
 27+  D2EB 00          > DB 0
 27+  D2EC 00          > DB 0
 27+  D2ED 00          > DB 0
 27+  D2EE 00          > DB 0
 27+  D2EF 00          > DB 0
 27+  D2F0 00          > DB 0
 27+  D2F1 00          > DB 0
 27+  D2F2 00          > DB 0
 27+  D2F3 00          > DB 0
 27+  D2F4 00          > DB 0
 27+  D2F5 00          > DB 0
 27+  D2F6 00          > DB 0
 27+  D2F7 00          > DB 0
 27+  D2F8 00          > DB 0
 27+  D2F9 00          > DB 0
 27+  D2FA 00          > DB 0
 27+  D2FB 00          > DB 0
 27+  D2FC 00          > DB 0
 27+  D2FD 00          > DB 0
 27+  D2FE 00          > DB 0
 27+  D2FF 00          > DB 0
 27+  D300 00          > DB 0
 27+  D301 00          > DB 0
 27+  D302 00          > DB 0
 27+  D303 00          > DB 0
 27+  D304 00          > DB 0
 27+  D305 00          > DB 0
 27+  D306 00          > DB 0
 27+  D307 00          > DB 0
 27+  D308 00          > DB 0
 27+  D309 00          > DB 0
 27+  D30A 00          > DB 0
 27+  D30B 00          > DB 0
 27+  D30C 00          > DB 0
 27+  D30D 00          > DB 0
 27+  D30E 00          > DB 0
 27+  D30F 00          > DB 0
 27+  D310 00          > DB 0
 27+  D311 00          > DB 0
 27+  D312 00          > DB 0
 27+  D313 00          > DB 0
 27+  D314 00          > DB 0
 27+  D315 00          > DB 0
 27+  D316 00          > DB 0
 27+  D317 00          > DB 0
 27+  D318 00          > DB 0
 27+  D319 00          > DB 0
 27+  D31A 00          > DB 0
 27+  D31B 00          > DB 0
 27+  D31C 00          > DB 0
 27+  D31D 00          > DB 0
 27+  D31E 00          > DB 0
 27+  D31F 00          > DB 0
 27+  D320 00          > DB 0
 27+  D321 00          > DB 0
 27+  D322 00          > DB 0
 27+  D323 00          > DB 0
 27+  D324 00          > DB 0
 27+  D325 00          > DB 0
 27+  D326 00          > DB 0
 27+  D327 00          > DB 0
 27+  D328 00          > DB 0
 27+  D329 00          > DB 0
 27+  D32A 00          > DB 0
 27+  D32B 00          > DB 0
 27+  D32C 00          > DB 0
 27+  D32D 00          > DB 0
 27+  D32E 00          > DB 0
 27+  D32F 00          > DB 0
 27+  D330 00          > DB 0
 27+  D331 00          > DB 0
 27+  D332 00          > DB 0
 27+  D333 00          > DB 0
 27+  D334 00          > DB 0
 27+  D335 00          > DB 0
 27+  D336 00          > DB 0
 27+  D337 00          > DB 0
 27+  D338 00          > DB 0
 27+  D339 00          > DB 0
 27+  D33A 00          > DB 0
 27+  D33B 00          > DB 0
 27+  D33C 00          > DB 0
 27+  D33D 00          > DB 0
 27+  D33E 00          > DB 0
 27+  D33F 00          > DB 0
 27+  D340 00          > DB 0
 27+  D341 00          > DB 0
 27+  D342 00          > DB 0
 27+  D343 00          > DB 0
 27+  D344 00          > DB 0
 27+  D345 00          > DB 0
 27+  D346 00          > DB 0
 27+  D347 00          > DB 0
 27+  D348 00          > DB 0
 27+  D349 00          > DB 0
 27+  D34A 00          > DB 0
 27+  D34B 00          > DB 0
 27+  D34C 00          > DB 0
 27+  D34D 00          > DB 0
 27+  D34E 00          > DB 0
 27+  D34F 00          > DB 0
 27+  D350 00          > DB 0
 27+  D351 00          > DB 0
 27+  D352 00          > DB 0
 27+  D353 00          > DB 0
 27+  D354 00          > DB 0
 27+  D355 00          > DB 0
 27+  D356 00          > DB 0
 27+  D357 00          > DB 0
 27+  D358 00          > DB 0
 27+  D359 00          > DB 0
 27+  D35A 00          > DB 0
 27+  D35B 00          > DB 0
 27+  D35C 00          > DB 0
 27+  D35D 00          > DB 0
 27+  D35E 00          > DB 0
 27+  D35F 00          > DB 0
 27+  D360 00          > DB 0
 27+  D361 00          > DB 0
 27+  D362 00          > DB 0
 27+  D363 00          > DB 0
 27+  D364 00          > DB 0
 27+  D365 00          > DB 0
 27+  D366 00          > DB 0
 27+  D367 00          > DB 0
 27+  D368 00          > DB 0
 27+  D369 00          > DB 0
 27+  D36A 00          > DB 0
 27+  D36B 00          > DB 0
 27+  D36C 00          > DB 0
 27+  D36D 00          > DB 0
 27+  D36E 00          > DB 0
 27+  D36F 00          > DB 0
 27+  D370 00          > DB 0
 27+  D371 00          > DB 0
 27+  D372 00          > DB 0
 27+  D373 00          > DB 0
 27+  D374 00          > DB 0
 27+  D375 00          > DB 0
 27+  D376 00          > DB 0
 27+  D377 00          > DB 0
 27+  D378 00          > DB 0
 27+  D379 00          > DB 0
 27+  D37A 00          > DB 0
 27+  D37B 00          > DB 0
 27+  D37C 00          > DB 0
 27+  D37D 00          > DB 0
 27+  D37E 00          > DB 0
 27+  D37F 00          > DB 0
 27+  D380 00          > DB 0
 27+  D381 00          > DB 0
 27+  D382 00          > DB 0
 27+  D383 00          > DB 0
 27+  D384 00          > DB 0
 27+  D385 00          > DB 0
 27+  D386 00          > DB 0
 27+  D387 00          > DB 0
 27+  D388 00          > DB 0
 27+  D389 00          > DB 0
 27+  D38A 00          > DB 0
 27+  D38B 00          > DB 0
 27+  D38C 00          > DB 0
 27+  D38D 00          > DB 0
 27+  D38E 00          > DB 0
 27+  D38F 00          > DB 0
 27+  D390 00          > DB 0
 27+  D391 00          > DB 0
 27+  D392 00          > DB 0
 27+  D393 00          > DB 0
 27+  D394 00          > DB 0
 27+  D395 00          > DB 0
 27+  D396 00          > DB 0
 27+  D397 00          > DB 0
 27+  D398 00          > DB 0
 27+  D399 00          > DB 0
 27+  D39A 00          > DB 0
 27+  D39B 00          > DB 0
 27+  D39C 00          > DB 0
 27+  D39D 00          > DB 0
 27+  D39E 00          > DB 0
 27+  D39F 00          > DB 0
 27+  D3A0 00          > DB 0
 27+  D3A1 00          > DB 0
 27+  D3A2 00          > DB 0
 27+  D3A3 00          > DB 0
 27+  D3A4 00          > DB 0
 27+  D3A5 00          > DB 0
 27+  D3A6 00          > DB 0
 27+  D3A7 00          > DB 0
 27+  D3A8 00          > DB 0
 27+  D3A9 00          > DB 0
 27+  D3AA 00          > DB 0
 27+  D3AB 00          > DB 0
 27+  D3AC 00          > DB 0
 27+  D3AD 00          > DB 0
 27+  D3AE 00          > DB 0
 27+  D3AF 00          > DB 0
 27+  D3B0 00          > DB 0
 27+  D3B1 00          > DB 0
 27+  D3B2 00          > DB 0
 27+  D3B3 00          > DB 0
 27+  D3B4 00          > DB 0
 27+  D3B5 00          > DB 0
 27+  D3B6 00          > DB 0
 27+  D3B7 00          > DB 0
 27+  D3B8 00          > DB 0
 27+  D3B9 00          > DB 0
 27+  D3BA 00          > DB 0
 27+  D3BB 00          > DB 0
 27+  D3BC 00          > DB 0
 27+  D3BD 00          > DB 0
 27+  D3BE 00          > DB 0
 27+  D3BF 00          > DB 0
 27+  D3C0 00          > DB 0
 27+  D3C1 00          > DB 0
 27+  D3C2 00          > DB 0
 27+  D3C3 00          > DB 0
 27+  D3C4 00          > DB 0
 27+  D3C5 00          > DB 0
 27+  D3C6 00          > DB 0
 27+  D3C7 00          > DB 0
 27+  D3C8 00          > DB 0
 27+  D3C9 00          > DB 0
 27+  D3CA 00          > DB 0
 27+  D3CB 00          > DB 0
 27+  D3CC 00          > DB 0
 27+  D3CD 00          > DB 0
 27+  D3CE 00          > DB 0
 27+  D3CF 00          > DB 0
 27+  D3D0 00          > DB 0
 27+  D3D1 00          > DB 0
 27+  D3D2 00          > DB 0
 27+  D3D3 00          > DB 0
 27+  D3D4 00          > DB 0
 27+  D3D5 00          > DB 0
 27+  D3D6 00          > DB 0
 27+  D3D7 00          > DB 0
 27+  D3D8 00          > DB 0
 27+  D3D9 00          > DB 0
 27+  D3DA 00          > DB 0
 27+  D3DB 00          > DB 0
 27+  D3DC 00          > DB 0
 27+  D3DD 00          > DB 0
 27+  D3DE 00          > DB 0
 27+  D3DF 00          > DB 0
 27+  D3E0 00          > DB 0
 27+  D3E1 00          > DB 0
 27+  D3E2 00          > DB 0
 27+  D3E3 00          > DB 0
 27+  D3E4 00          > DB 0
 27+  D3E5 00          > DB 0
 27+  D3E6 00          > DB 0
 27+  D3E7 00          > DB 0
 27+  D3E8 00          > DB 0
 27+  D3E9 00          > DB 0
 27+  D3EA 00          > DB 0
 27+  D3EB 00          > DB 0
 27+  D3EC 00          > DB 0
 27+  D3ED 00          > DB 0
 27+  D3EE 00          > DB 0
 27+  D3EF 00          > DB 0
 27+  D3F0 00          > DB 0
 27+  D3F1 00          > DB 0
 27+  D3F2 00          > DB 0
 27+  D3F3 00          > DB 0
 27+  D3F4 00          > DB 0
 27+  D3F5 00          > DB 0
 27+  D3F6 00          > DB 0
 27+  D3F7 00          > DB 0
 27+  D3F8 00          > DB 0
 27+  D3F9 00          > DB 0
 27+  D3FA 00          > DB 0
 27+  D3FB 00          > DB 0
 27+  D3FC 00          > DB 0
 27+  D3FD 00          > DB 0
 27+  D3FE 00          > DB 0
 27+  D3FF 00          > DB 0
 27+  D400 00          > DB 0
 27+  D401 00          > DB 0
 27+  D402 00          > DB 0
 27+  D403 00          > DB 0
 27+  D404 00          > DB 0
 27+  D405 00          > DB 0
 27+  D406 00          > DB 0
 27+  D407 00          > DB 0
 27+  D408 00          > DB 0
 27+  D409 00          > DB 0
 27+  D40A 00          > DB 0
 27+  D40B 00          > DB 0
 27+  D40C 00          > DB 0
 27+  D40D 00          > DB 0
 27+  D40E 00          > DB 0
 27+  D40F 00          > DB 0
 27+  D410 00          > DB 0
 27+  D411 00          > DB 0
 27+  D412 00          > DB 0
 27+  D413 00          > DB 0
 27+  D414 00          > DB 0
 27+  D415 00          > DB 0
 27+  D416 00          > DB 0
 27+  D417 00          > DB 0
 27+  D418 00          > DB 0
 27+  D419 00          > DB 0
 27+  D41A 00          > DB 0
 27+  D41B 00          > DB 0
 27+  D41C 00          > DB 0
 27+  D41D 00          > DB 0
 27+  D41E 00          > DB 0
 27+  D41F 00          > DB 0
 27+  D420 00          > DB 0
 27+  D421 00          > DB 0
 27+  D422 00          > DB 0
 27+  D423 00          > DB 0
 27+  D424 00          > DB 0
 27+  D425 00          > DB 0
 27+  D426 00          > DB 0
 27+  D427 00          > DB 0
 27+  D428 00          > DB 0
 27+  D429 00          > DB 0
 27+  D42A 00          > DB 0
 27+  D42B 00          > DB 0
 27+  D42C 00          > DB 0
 27+  D42D 00          > DB 0
 27+  D42E 00          > DB 0
 27+  D42F 00          > DB 0
 27+  D430 00          > DB 0
 27+  D431 00          > DB 0
 27+  D432 00          > DB 0
 27+  D433 00          > DB 0
 27+  D434 00          > DB 0
 27+  D435 00          > DB 0
 27+  D436 00          > DB 0
 27+  D437 00          > DB 0
 27+  D438 00          > DB 0
 27+  D439 00          > DB 0
 27+  D43A 00          > DB 0
 27+  D43B 00          > DB 0
 27+  D43C 00          > DB 0
 27+  D43D 00          > DB 0
 27+  D43E 00          > DB 0
 27+  D43F 00          > DB 0
 27+  D440 00          > DB 0
 27+  D441 00          > DB 0
 27+  D442 00          > DB 0
 27+  D443 00          > DB 0
 27+  D444 00          > DB 0
 27+  D445 00          > DB 0
 27+  D446 00          > DB 0
 27+  D447 00          > DB 0
 27+  D448 00          > DB 0
 27+  D449 00          > DB 0
 27+  D44A 00          > DB 0
 27+  D44B 00          > DB 0
 27+  D44C 00          > DB 0
 27+  D44D 00          > DB 0
 27+  D44E 00          > DB 0
 27+  D44F 00          > DB 0
 27+  D450 00          > DB 0
 27+  D451 00          > DB 0
 27+  D452 00          > DB 0
 27+  D453 00          > DB 0
 27+  D454 00          > DB 0
 27+  D455 00          > DB 0
 27+  D456 00          > DB 0
 27+  D457 00          > DB 0
 27+  D458 00          > DB 0
 27+  D459 00          > DB 0
 27+  D45A 00          > DB 0
 27+  D45B 00          > DB 0
 27+  D45C 00          > DB 0
 27+  D45D 00          > DB 0
 27+  D45E 00          > DB 0
 27+  D45F 00          > DB 0
 27+  D460 00          > DB 0
 27+  D461 00          > DB 0
 27+  D462 00          > DB 0
 27+  D463 00          > DB 0
 27+  D464 00          > DB 0
 27+  D465 00          > DB 0
 27+  D466 00          > DB 0
 27+  D467 00          > DB 0
 27+  D468 00          > DB 0
 27+  D469 00          > DB 0
 27+  D46A 00          > DB 0
 27+  D46B 00          > DB 0
 27+  D46C 00          > DB 0
 27+  D46D 00          > DB 0
 27+  D46E 00          > DB 0
 27+  D46F 00          > DB 0
 27+  D470 00          > DB 0
 27+  D471 00          > DB 0
 27+  D472 00          > DB 0
 27+  D473 00          > DB 0
 27+  D474 00          > DB 0
 27+  D475 00          > DB 0
 27+  D476 00          > DB 0
 27+  D477 00          > DB 0
 27+  D478 00          > DB 0
 27+  D479 00          > DB 0
 27+  D47A 00          > DB 0
 27+  D47B 00          > DB 0
 27+  D47C 00          > DB 0
 27+  D47D 00          > DB 0
 27+  D47E 00          > DB 0
 27+  D47F 00          > DB 0
 27+  D480 00          > DB 0
 27+  D481 00          > DB 0
 27+  D482 00          > DB 0
 27+  D483 00          > DB 0
 27+  D484 00          > DB 0
 27+  D485 00          > DB 0
 27+  D486 00          > DB 0
 27+  D487 00          > DB 0
 27+  D488 00          > DB 0
 27+  D489 00          > DB 0
 27+  D48A 00          > DB 0
 27+  D48B 00          > DB 0
 27+  D48C 00          > DB 0
 27+  D48D 00          > DB 0
 27+  D48E 00          > DB 0
 27+  D48F 00          > DB 0
 27+  D490 00          > DB 0
 27+  D491 00          > DB 0
 27+  D492 00          > DB 0
 27+  D493 00          > DB 0
 27+  D494 00          > DB 0
 27+  D495 00          > DB 0
 27+  D496 00          > DB 0
 27+  D497 00          > DB 0
 27+  D498 00          > DB 0
 27+  D499 00          > DB 0
 27+  D49A 00          > DB 0
 27+  D49B 00          > DB 0
 27+  D49C 00          > DB 0
 27+  D49D 00          > DB 0
 27+  D49E 00          > DB 0
 27+  D49F 00          > DB 0
 27+  D4A0 00          > DB 0
 27+  D4A1 00          > DB 0
 27+  D4A2 00          > DB 0
 27+  D4A3 00          > DB 0
 27+  D4A4 00          > DB 0
 27+  D4A5 00          > DB 0
 27+  D4A6 00          > DB 0
 27+  D4A7 00          > DB 0
 27+  D4A8 00          > DB 0
 27+  D4A9 00          > DB 0
 27+  D4AA 00          > DB 0
 27+  D4AB 00          > DB 0
 27+  D4AC 00          > DB 0
 27+  D4AD 00          > DB 0
 27+  D4AE 00          > DB 0
 27+  D4AF 00          > DB 0
 27+  D4B0 00          > DB 0
 27+  D4B1 00          > DB 0
 27+  D4B2 00          > DB 0
 27+  D4B3 00          > DB 0
 27+  D4B4 00          > DB 0
 27+  D4B5 00          > DB 0
 27+  D4B6 00          > DB 0
 27+  D4B7 00          > DB 0
 27+  D4B8 00          > DB 0
 27+  D4B9 00          > DB 0
 27+  D4BA 00          > DB 0
 27+  D4BB 00          > DB 0
 27+  D4BC 00          > DB 0
 27+  D4BD 00          > DB 0
 27+  D4BE 00          > DB 0
 27+  D4BF 00          > DB 0
 27+  D4C0 00          > DB 0
 27+  D4C1 00          > DB 0
 27+  D4C2 00          > DB 0
 27+  D4C3 00          > DB 0
 27+  D4C4 00          > DB 0
 27+  D4C5 00          > DB 0
 27+  D4C6 00          > DB 0
 27+  D4C7 00          > DB 0
 27+  D4C8 00          > DB 0
 27+  D4C9 00          > DB 0
 27+  D4CA 00          > DB 0
 27+  D4CB 00          > DB 0
 27+  D4CC 00          > DB 0
 27+  D4CD 00          > DB 0
 27+  D4CE 00          > DB 0
 27+  D4CF 00          > DB 0
 27+  D4D0 00          > DB 0
 27+  D4D1 00          > DB 0
 27+  D4D2 00          > DB 0
 27+  D4D3 00          > DB 0
 27+  D4D4 00          > DB 0
 27+  D4D5 00          > DB 0
 27+  D4D6 00          > DB 0
 27+  D4D7 00          > DB 0
 27+  D4D8 00          > DB 0
 27+  D4D9 00          > DB 0
 27+  D4DA 00          > DB 0
 27+  D4DB 00          > DB 0
 27+  D4DC 00          > DB 0
 27+  D4DD 00          > DB 0
 27+  D4DE 00          > DB 0
 27+  D4DF 00          > DB 0
 27+  D4E0 00          > DB 0
 27+  D4E1 00          > DB 0
 27+  D4E2 00          > DB 0
 27+  D4E3 00          > DB 0
 27+  D4E4 00          > DB 0
 27+  D4E5 00          > DB 0
 27+  D4E6 00          > DB 0
 27+  D4E7 00          > DB 0
 27+  D4E8 00          > DB 0
 27+  D4E9 00          > DB 0
 27+  D4EA 00          > DB 0
 27+  D4EB 00          > DB 0
 27+  D4EC 00          > DB 0
 27+  D4ED 00          > DB 0
 27+  D4EE 00          > DB 0
 27+  D4EF 00          > DB 0
 27+  D4F0 00          > DB 0
 27+  D4F1 00          > DB 0
 27+  D4F2 00          > DB 0
 27+  D4F3 00          > DB 0
 27+  D4F4 00          > DB 0
 27+  D4F5 00          > DB 0
 27+  D4F6 00          > DB 0
 27+  D4F7 00          > DB 0
 27+  D4F8 00          > DB 0
 27+  D4F9 00          > DB 0
 27+  D4FA 00          > DB 0
 27+  D4FB 00          > DB 0
 27+  D4FC 00          > DB 0
 27+  D4FD 00          > DB 0
 27+  D4FE 00          > DB 0
 27+  D4FF 00          > DB 0
 27+  D500 00          > DB 0
 27+  D501 00          > DB 0
 27+  D502 00          > DB 0
 27+  D503 00          > DB 0
 27+  D504 00          > DB 0
 27+  D505 00          > DB 0
 27+  D506 00          > DB 0
 27+  D507 00          > DB 0
 27+  D508 00          > DB 0
 27+  D509 00          > DB 0
 27+  D50A 00          > DB 0
 27+  D50B 00          > DB 0
 27+  D50C 00          > DB 0
 27+  D50D 00          > DB 0
 27+  D50E 00          > DB 0
 27+  D50F 00          > DB 0
 27+  D510 00          > DB 0
 27+  D511 00          > DB 0
 27+  D512 00          > DB 0
 27+  D513 00          > DB 0
 27+  D514 00          > DB 0
 27+  D515 00          > DB 0
 27+  D516 00          > DB 0
 27+  D517 00          > DB 0
 27+  D518 00          > DB 0
 27+  D519 00          > DB 0
 27+  D51A 00          > DB 0
 27+  D51B 00          > DB 0
 27+  D51C 00          > DB 0
 27+  D51D 00          > DB 0
 27+  D51E 00          > DB 0
 27+  D51F 00          > DB 0
 27+  D520 00          > DB 0
 27+  D521 00          > DB 0
 27+  D522 00          > DB 0
 27+  D523 00          > DB 0
 27+  D524 00          > DB 0
 27+  D525 00          > DB 0
 27+  D526 00          > DB 0
 27+  D527 00          > DB 0
 27+  D528 00          > DB 0
 27+  D529 00          > DB 0
 27+  D52A 00          > DB 0
 27+  D52B 00          > DB 0
 27+  D52C 00          > DB 0
 27+  D52D 00          > DB 0
 27+  D52E 00          > DB 0
 27+  D52F 00          > DB 0
 27+  D530 00          > DB 0
 27+  D531 00          > DB 0
 27+  D532 00          > DB 0
 27+  D533 00          > DB 0
 27+  D534 00          > DB 0
 27+  D535 00          > DB 0
 27+  D536 00          > DB 0
 27+  D537 00          > DB 0
 27+  D538 00          > DB 0
 27+  D539 00          > DB 0
 27+  D53A 00          > DB 0
 27+  D53B 00          > DB 0
 27+  D53C 00          > DB 0
 27+  D53D 00          > DB 0
 27+  D53E 00          > DB 0
 27+  D53F 00          > DB 0
 27+  D540 00          > DB 0
 27+  D541 00          > DB 0
 27+  D542 00          > DB 0
 27+  D543 00          > DB 0
 27+  D544 00          > DB 0
 27+  D545 00          > DB 0
 27+  D546 00          > DB 0
 27+  D547 00          > DB 0
 27+  D548 00          > DB 0
 27+  D549 00          > DB 0
 27+  D54A 00          > DB 0
 27+  D54B 00          > DB 0
 27+  D54C 00          > DB 0
 27+  D54D 00          > DB 0
 27+  D54E 00          > DB 0
 27+  D54F 00          > DB 0
 27+  D550 00          > DB 0
 27+  D551 00          > DB 0
 27+  D552 00          > DB 0
 27+  D553 00          > DB 0
 27+  D554 00          > DB 0
 27+  D555 00          > DB 0
 27+  D556 00          > DB 0
 27+  D557 00          > DB 0
 27+  D558 00          > DB 0
 27+  D559 00          > DB 0
 27+  D55A 00          > DB 0
 27+  D55B 00          > DB 0
 27+  D55C 00          > DB 0
 27+  D55D 00          > DB 0
 27+  D55E 00          > DB 0
 27+  D55F 00          > DB 0
 27+  D560 00          > DB 0
 27+  D561 00          > DB 0
 27+  D562 00          > DB 0
 27+  D563 00          > DB 0
 27+  D564 00          > DB 0
 27+  D565 00          > DB 0
 27+  D566 00          > DB 0
 27+  D567 00          > DB 0
 27+  D568 00          > DB 0
 27+  D569 00          > DB 0
 27+  D56A 00          > DB 0
 27+  D56B 00          > DB 0
 27+  D56C 00          > DB 0
 27+  D56D 00          > DB 0
 27+  D56E 00          > DB 0
 27+  D56F 00          > DB 0
 27+  D570 00          > DB 0
 27+  D571 00          > DB 0
 27+  D572 00          > DB 0
 27+  D573 00          > DB 0
 27+  D574 00          > DB 0
 27+  D575 00          > DB 0
 27+  D576 00          > DB 0
 27+  D577 00          > DB 0
 27+  D578 00          > DB 0
 27+  D579 00          > DB 0
 27+  D57A 00          > DB 0
 27+  D57B 00          > DB 0
 27+  D57C 00          > DB 0
 27+  D57D 00          > DB 0
 27+  D57E 00          > DB 0
 27+  D57F 00          > DB 0
 27+  D580 00          > DB 0
 27+  D581 00          > DB 0
 27+  D582 00          > DB 0
 27+  D583 00          > DB 0
 27+  D584 00          > DB 0
 27+  D585 00          > DB 0
 27+  D586 00          > DB 0
 27+  D587 00          > DB 0
 27+  D588 00          > DB 0
 27+  D589 00          > DB 0
 27+  D58A 00          > DB 0
 27+  D58B 00          > DB 0
 27+  D58C 00          > DB 0
 27+  D58D 00          > DB 0
 27+  D58E 00          > DB 0
 27+  D58F 00          > DB 0
 27+  D590 00          > DB 0
 27+  D591 00          > DB 0
 27+  D592 00          > DB 0
 27+  D593 00          > DB 0
 27+  D594 00          > DB 0
 27+  D595 00          > DB 0
 27+  D596 00          > DB 0
 27+  D597 00          > DB 0
 27+  D598 00          > DB 0
 27+  D599 00          > DB 0
 27+  D59A 00          > DB 0
 27+  D59B 00          > DB 0
 27+  D59C 00          > DB 0
 27+  D59D 00          > DB 0
 27+  D59E 00          > DB 0
 27+  D59F 00          > DB 0
 27+  D5A0 00          > DB 0
 27+  D5A1 00          > DB 0
 27+  D5A2 00          > DB 0
 27+  D5A3 00          > DB 0
 27+  D5A4 00          > DB 0
 27+  D5A5 00          > DB 0
 27+  D5A6 00          > DB 0
 27+  D5A7 00          > DB 0
 27+  D5A8 00          > DB 0
 27+  D5A9 00          > DB 0
 27+  D5AA 00          > DB 0
 27+  D5AB 00          > DB 0
 27+  D5AC 00          > DB 0
 27+  D5AD 00          > DB 0
 27+  D5AE 00          > DB 0
 27+  D5AF 00          > DB 0
 27+  D5B0 00          > DB 0
 27+  D5B1 00          > DB 0
 27+  D5B2 00          > DB 0
 27+  D5B3 00          > DB 0
 27+  D5B4 00          > DB 0
 27+  D5B5 00          > DB 0
 27+  D5B6 00          > DB 0
 27+  D5B7 00          > DB 0
 27+  D5B8 00          > DB 0
 27+  D5B9 00          > DB 0
 27+  D5BA 00          > DB 0
 27+  D5BB 00          > DB 0
 27+  D5BC 00          > DB 0
 27+  D5BD 00          > DB 0
 27+  D5BE 00          > DB 0
 27+  D5BF 00          > DB 0
 27+  D5C0 00          > DB 0
 27+  D5C1 00          > DB 0
 27+  D5C2 00          > DB 0
 27+  D5C3 00          > DB 0
 27+  D5C4 00          > DB 0
 27+  D5C5 00          > DB 0
 27+  D5C6 00          > DB 0
 27+  D5C7 00          > DB 0
 27+  D5C8 00          > DB 0
 27+  D5C9 00          > DB 0
 27+  D5CA 00          > DB 0
 27+  D5CB 00          > DB 0
 27+  D5CC 00          > DB 0
 27+  D5CD 00          > DB 0
 27+  D5CE 00          > DB 0
 27+  D5CF 00          > DB 0
 27+  D5D0 00          > DB 0
 27+  D5D1 00          > DB 0
 27+  D5D2 00          > DB 0
 27+  D5D3 00          > DB 0
 27+  D5D4 00          > DB 0
 27+  D5D5 00          > DB 0
 27+  D5D6 00          > DB 0
 27+  D5D7 00          > DB 0
 27+  D5D8 00          > DB 0
 27+  D5D9 00          > DB 0
 27+  D5DA 00          > DB 0
 27+  D5DB 00          > DB 0
 27+  D5DC 00          > DB 0
 27+  D5DD 00          > DB 0
 27+  D5DE 00          > DB 0
 27+  D5DF 00          > DB 0
 27+  D5E0 00          > DB 0
 27+  D5E1 00          > DB 0
 27+  D5E2 00          > DB 0
 27+  D5E3 00          > DB 0
 27+  D5E4 00          > DB 0
 27+  D5E5 00          > DB 0
 27+  D5E6 00          > DB 0
 27+  D5E7 00          > DB 0
 27+  D5E8 00          > DB 0
 27+  D5E9 00          > DB 0
 27+  D5EA 00          > DB 0
 27+  D5EB 00          > DB 0
 27+  D5EC 00          > DB 0
 27+  D5ED 00          > DB 0
 27+  D5EE 00          > DB 0
 27+  D5EF 00          > DB 0
 27+  D5F0 00          > DB 0
 27+  D5F1 00          > DB 0
 27+  D5F2 00          > DB 0
 27+  D5F3 00          > DB 0
 27+  D5F4 00          > DB 0
 27+  D5F5 00          > DB 0
 27+  D5F6 00          > DB 0
 27+  D5F7 00          > DB 0
 27+  D5F8 00          > DB 0
 27+  D5F9 00          > DB 0
 27+  D5FA 00          > DB 0
 27+  D5FB 00          > DB 0
 27+  D5FC 00          > DB 0
 27+  D5FD 00          > DB 0
 27+  D5FE 00          > DB 0
 27+  D5FF 00          > DB 0
 27+  D600 00          > DB 0
 27+  D601 00          > DB 0
 27+  D602 00          > DB 0
 27+  D603 00          > DB 0
 27+  D604 00          > DB 0
 27+  D605 00          > DB 0
 27+  D606 00          > DB 0
 27+  D607 00          > DB 0
 27+  D608 00          > DB 0
 27+  D609 00          > DB 0
 27+  D60A 00          > DB 0
 27+  D60B 00          > DB 0
 27+  D60C 00          > DB 0
 27+  D60D 00          > DB 0
 27+  D60E 00          > DB 0
 27+  D60F 00          > DB 0
 27+  D610 00          > DB 0
 27+  D611 00          > DB 0
 27+  D612 00          > DB 0
 27+  D613 00          > DB 0
 27+  D614 00          > DB 0
 27+  D615 00          > DB 0
 27+  D616 00          > DB 0
 27+  D617 00          > DB 0
 27+  D618 00          > DB 0
 27+  D619 00          > DB 0
 27+  D61A 00          > DB 0
 27+  D61B 00          > DB 0
 27+  D61C 00          > DB 0
 27+  D61D 00          > DB 0
 27+  D61E 00          > DB 0
 27+  D61F 00          > DB 0
 27+  D620 00          > DB 0
 27+  D621 00          > DB 0
 27+  D622 00          > DB 0
 27+  D623 00          > DB 0
 27+  D624 00          > DB 0
 27+  D625 00          > DB 0
 27+  D626 00          > DB 0
 27+  D627 00          > DB 0
 27+  D628 00          > DB 0
 27+  D629 00          > DB 0
 27+  D62A 00          > DB 0
 27+  D62B 00          > DB 0
 27+  D62C 00          > DB 0
 27+  D62D 00          > DB 0
 27+  D62E 00          > DB 0
 27+  D62F 00          > DB 0
 27+  D630 00          > DB 0
 27+  D631 00          > DB 0
 27+  D632 00          > DB 0
 27+  D633 00          > DB 0
 27+  D634 00          > DB 0
 27+  D635 00          > DB 0
 27+  D636 00          > DB 0
 27+  D637 00          > DB 0
 27+  D638 00          > DB 0
 27+  D639 00          > DB 0
 27+  D63A 00          > DB 0
 27+  D63B 00          > DB 0
 27+  D63C 00          > DB 0
 27+  D63D 00          > DB 0
 27+  D63E 00          > DB 0
 27+  D63F 00          > DB 0
 27+  D640 00          > DB 0
 27+  D641 00          > DB 0
 27+  D642 00          > DB 0
 27+  D643 00          > DB 0
 27+  D644 00          > DB 0
 27+  D645 00          > DB 0
 27+  D646 00          > DB 0
 27+  D647 00          > DB 0
 27+  D648 00          > DB 0
 27+  D649 00          > DB 0
 27+  D64A 00          > DB 0
 27+  D64B 00          > DB 0
 27+  D64C 00          > DB 0
 27+  D64D 00          > DB 0
 27+  D64E 00          > DB 0
 27+  D64F 00          > DB 0
 27+  D650 00          > DB 0
 27+  D651 00          > DB 0
 27+  D652 00          > DB 0
 27+  D653 00          > DB 0
 27+  D654 00          > DB 0
 27+  D655 00          > DB 0
 27+  D656 00          > DB 0
 27+  D657 00          > DB 0
 27+  D658 00          > DB 0
 27+  D659 00          > DB 0
 27+  D65A 00          > DB 0
 27+  D65B 00          > DB 0
 27+  D65C 00          > DB 0
 27+  D65D 00          > DB 0
 27+  D65E 00          > DB 0
 27+  D65F 00          > DB 0
 27+  D660 00          > DB 0
 27+  D661 00          > DB 0
 27+  D662 00          > DB 0
 27+  D663 00          > DB 0
 27+  D664 00          > DB 0
 27+  D665 00          > DB 0
 27+  D666 00          > DB 0
 27+  D667 00          > DB 0
 27+  D668 00          > DB 0
 27+  D669 00          > DB 0
 27+  D66A 00          > DB 0
 27+  D66B 00          > DB 0
 27+  D66C 00          > DB 0
 27+  D66D 00          > DB 0
 27+  D66E 00          > DB 0
 27+  D66F 00          > DB 0
 27+  D670 00          > DB 0
 27+  D671 00          > DB 0
 27+  D672 00          > DB 0
 27+  D673 00          > DB 0
 27+  D674 00          > DB 0
 27+  D675 00          > DB 0
 27+  D676 00          > DB 0
 27+  D677 00          > DB 0
 27+  D678 00          > DB 0
 27+  D679 00          > DB 0
 27+  D67A 00          > DB 0
 27+  D67B 00          > DB 0
 27+  D67C 00          > DB 0
 27+  D67D 00          > DB 0
 27+  D67E 00          > DB 0
 27+  D67F 00          > DB 0
 27+  D680 00          > DB 0
 27+  D681 00          > DB 0
 27+  D682 00          > DB 0
 27+  D683 00          > DB 0
 27+  D684 00          > DB 0
 27+  D685 00          > DB 0
 27+  D686 00          > DB 0
 27+  D687 00          > DB 0
 27+  D688 00          > DB 0
 27+  D689 00          > DB 0
 27+  D68A 00          > DB 0
 27+  D68B 00          > DB 0
 27+  D68C 00          > DB 0
 27+  D68D 00          > DB 0
 27+  D68E 00          > DB 0
 27+  D68F 00          > DB 0
 27+  D690 00          > DB 0
 27+  D691 00          > DB 0
 27+  D692 00          > DB 0
 27+  D693 00          > DB 0
 27+  D694 00          > DB 0
 27+  D695 00          > DB 0
 27+  D696 00          > DB 0
 27+  D697 00          > DB 0
 27+  D698 00          > DB 0
 27+  D699 00          > DB 0
 27+  D69A 00          > DB 0
 27+  D69B 00          > DB 0
 27+  D69C 00          > DB 0
 27+  D69D 00          > DB 0
 27+  D69E 00          > DB 0
 27+  D69F 00          > DB 0
 27+  D6A0 00          > DB 0
 27+  D6A1 00          > DB 0
 27+  D6A2 00          > DB 0
 27+  D6A3 00          > DB 0
 27+  D6A4 00          > DB 0
 27+  D6A5 00          > DB 0
 27+  D6A6 00          > DB 0
 27+  D6A7 00          > DB 0
 27+  D6A8 00          > DB 0
 27+  D6A9 00          > DB 0
 27+  D6AA 00          > DB 0
 27+  D6AB 00          > DB 0
 27+  D6AC 00          > DB 0
 27+  D6AD 00          > DB 0
 27+  D6AE 00          > DB 0
 27+  D6AF 00          > DB 0
 27+  D6B0 00          > DB 0
 27+  D6B1 00          > DB 0
 27+  D6B2 00          > DB 0
 27+  D6B3 00          > DB 0
 27+  D6B4 00          > DB 0
 27+  D6B5 00          > DB 0
 27+  D6B6 00          > DB 0
 27+  D6B7 00          > DB 0
 27+  D6B8 00          > DB 0
 27+  D6B9 00          > DB 0
 27+  D6BA 00          > DB 0
 27+  D6BB 00          > DB 0
 27+  D6BC 00          > DB 0
 27+  D6BD 00          > DB 0
 27+  D6BE 00          > DB 0
 27+  D6BF 00          > DB 0
 27+  D6C0 00          > DB 0
 27+  D6C1 00          > DB 0
 27+  D6C2 00          > DB 0
 27+  D6C3 00          > DB 0
 27+  D6C4 00          > DB 0
 27+  D6C5 00          > DB 0
 27+  D6C6 00          > DB 0
 27+  D6C7 00          > DB 0
 27+  D6C8 00          > DB 0
 27+  D6C9 00          > DB 0
 27+  D6CA 00          > DB 0
 27+  D6CB 00          > DB 0
 27+  D6CC 00          > DB 0
 27+  D6CD 00          > DB 0
 27+  D6CE 00          > DB 0
 27+  D6CF 00          > DB 0
 27+  D6D0 00          > DB 0
 27+  D6D1 00          > DB 0
 27+  D6D2 00          > DB 0
 27+  D6D3 00          > DB 0
 27+  D6D4 00          > DB 0
 27+  D6D5 00          > DB 0
 27+  D6D6 00          > DB 0
 27+  D6D7 00          > DB 0
 27+  D6D8 00          > DB 0
 27+  D6D9 00          > DB 0
 27+  D6DA 00          > DB 0
 27+  D6DB 00          > DB 0
 27+  D6DC 00          > DB 0
 27+  D6DD 00          > DB 0
 27+  D6DE 00          > DB 0
 27+  D6DF 00          > DB 0
 27+  D6E0 00          > DB 0
 27+  D6E1 00          > DB 0
 27+  D6E2 00          > DB 0
 27+  D6E3 00          > DB 0
 27+  D6E4 00          > DB 0
 27+  D6E5 00          > DB 0
 27+  D6E6 00          > DB 0
 27+  D6E7 00          > DB 0
 27+  D6E8 00          > DB 0
 27+  D6E9 00          > DB 0
 27+  D6EA 00          > DB 0
 27+  D6EB 00          > DB 0
 27+  D6EC 00          > DB 0
 27+  D6ED 00          > DB 0
 27+  D6EE 00          > DB 0
 27+  D6EF 00          > DB 0
 27+  D6F0 00          > DB 0
 27+  D6F1 00          > DB 0
 27+  D6F2 00          > DB 0
 27+  D6F3 00          > DB 0
 27+  D6F4 00          > DB 0
 27+  D6F5 00          > DB 0
 27+  D6F6 00          > DB 0
 27+  D6F7 00          > DB 0
 27+  D6F8 00          > DB 0
 27+  D6F9 00          > DB 0
 27+  D6FA 00          > DB 0
 27+  D6FB 00          > DB 0
 27+  D6FC 00          > DB 0
 27+  D6FD 00          > DB 0
 27+  D6FE 00          > DB 0
 27+  D6FF 00          > DB 0
 27+  D700 00          > DB 0
 27+  D701 00          > DB 0
 27+  D702 00          > DB 0
 27+  D703 00          > DB 0
 27+  D704 00          > DB 0
 27+  D705 00          > DB 0
 27+  D706 00          > DB 0
 27+  D707 00          > DB 0
 27+  D708 00          > DB 0
 27+  D709 00          > DB 0
 27+  D70A 00          > DB 0
 27+  D70B 00          > DB 0
 27+  D70C 00          > DB 0
 27+  D70D 00          > DB 0
 27+  D70E 00          > DB 0
 27+  D70F 00          > DB 0
 27+  D710 00          > DB 0
 27+  D711 00          > DB 0
 27+  D712 00          > DB 0
 27+  D713 00          > DB 0
 27+  D714 00          > DB 0
 27+  D715 00          > DB 0
 27+  D716 00          > DB 0
 27+  D717 00          > DB 0
 27+  D718 00          > DB 0
 27+  D719 00          > DB 0
 27+  D71A 00          > DB 0
 27+  D71B 00          > DB 0
 27+  D71C 00          > DB 0
 27+  D71D 00          > DB 0
 27+  D71E 00          > DB 0
 27+  D71F 00          > DB 0
 27+  D720 00          > DB 0
 27+  D721 00          > DB 0
 27+  D722 00          > DB 0
 27+  D723 00          > DB 0
 27+  D724 00          > DB 0
 27+  D725 00          > DB 0
 27+  D726 00          > DB 0
 27+  D727 00          > DB 0
 27+  D728 00          > DB 0
 27+  D729 00          > DB 0
 27+  D72A 00          > DB 0
 27+  D72B 00          > DB 0
 27+  D72C 00          > DB 0
 27+  D72D 00          > DB 0
 27+  D72E 00          > DB 0
 27+  D72F 00          > DB 0
 27+  D730 00          > DB 0
 27+  D731 00          > DB 0
 27+  D732 00          > DB 0
 27+  D733 00          > DB 0
 27+  D734 00          > DB 0
 27+  D735 00          > DB 0
 27+  D736 00          > DB 0
 27+  D737 00          > DB 0
 27+  D738 00          > DB 0
 27+  D739 00          > DB 0
 27+  D73A 00          > DB 0
 27+  D73B 00          > DB 0
 27+  D73C 00          > DB 0
 27+  D73D 00          > DB 0
 27+  D73E 00          > DB 0
 27+  D73F 00          > DB 0
 27+  D740 00          > DB 0
 27+  D741 00          > DB 0
 27+  D742 00          > DB 0
 27+  D743 00          > DB 0
 27+  D744 00          > DB 0
 27+  D745 00          > DB 0
 27+  D746 00          > DB 0
 27+  D747 00          > DB 0
 27+  D748 00          > DB 0
 27+  D749 00          > DB 0
 27+  D74A 00          > DB 0
 27+  D74B 00          > DB 0
 27+  D74C 00          > DB 0
 27+  D74D 00          > DB 0
 27+  D74E 00          > DB 0
 27+  D74F 00          > DB 0
 27+  D750 00          > DB 0
 27+  D751 00          > DB 0
 27+  D752 00          > DB 0
 27+  D753 00          > DB 0
 27+  D754 00          > DB 0
 27+  D755 00          > DB 0
 27+  D756 00          > DB 0
 27+  D757 00          > DB 0
 27+  D758 00          > DB 0
 27+  D759 00          > DB 0
 27+  D75A 00          > DB 0
 27+  D75B 00          > DB 0
 27+  D75C 00          > DB 0
 27+  D75D 00          > DB 0
 27+  D75E 00          > DB 0
 27+  D75F 00          > DB 0
 27+  D760 00          > DB 0
 27+  D761 00          > DB 0
 27+  D762 00          > DB 0
 27+  D763 00          > DB 0
 27+  D764 00          > DB 0
 27+  D765 00          > DB 0
 27+  D766 00          > DB 0
 27+  D767 00          > DB 0
 27+  D768 00          > DB 0
 27+  D769 00          > DB 0
 27+  D76A 00          > DB 0
 27+  D76B 00          > DB 0
 27+  D76C 00          > DB 0
 27+  D76D 00          > DB 0
 27+  D76E 00          > DB 0
 27+  D76F 00          > DB 0
 27+  D770 00          > DB 0
 27+  D771 00          > DB 0
 27+  D772 00          > DB 0
 27+  D773 00          > DB 0
 27+  D774 00          > DB 0
 27+  D775 00          > DB 0
 27+  D776 00          > DB 0
 27+  D777 00          > DB 0
 27+  D778 00          > DB 0
 27+  D779 00          > DB 0
 27+  D77A 00          > DB 0
 27+  D77B 00          > DB 0
 27+  D77C 00          > DB 0
 27+  D77D 00          > DB 0
 27+  D77E 00          > DB 0
 27+  D77F 00          > DB 0
 27+  D780 00          > DB 0
 27+  D781 00          > DB 0
 27+  D782 00          > DB 0
 27+  D783 00          > DB 0
 27+  D784 00          > DB 0
 27+  D785 00          > DB 0
 27+  D786 00          > DB 0
 27+  D787 00          > DB 0
 27+  D788 00          > DB 0
 27+  D789 00          > DB 0
 27+  D78A 00          > DB 0
 27+  D78B 00          > DB 0
 27+  D78C 00          > DB 0
 27+  D78D 00          > DB 0
 27+  D78E 00          > DB 0
 27+  D78F 00          > DB 0
 27+  D790 00          > DB 0
 27+  D791 00          > DB 0
 27+  D792 00          > DB 0
 27+  D793 00          > DB 0
 27+  D794 00          > DB 0
 27+  D795 00          > DB 0
 27+  D796 00          > DB 0
 27+  D797 00          > DB 0
 27+  D798 00          > DB 0
 27+  D799 00          > DB 0
 27+  D79A 00          > DB 0
 27+  D79B 00          > DB 0
 27+  D79C 00          > DB 0
 27+  D79D 00          > DB 0
 27+  D79E 00          > DB 0
 27+  D79F 00          > DB 0
 27+  D7A0 00          > DB 0
 27+  D7A1 00          > DB 0
 27+  D7A2 00          > DB 0
 27+  D7A3 00          > DB 0
 27+  D7A4 00          > DB 0
 27+  D7A5 00          > DB 0
 27+  D7A6 00          > DB 0
 27+  D7A7 00          > DB 0
 27+  D7A8 00          > DB 0
 27+  D7A9 00          > DB 0
 27+  D7AA 00          > DB 0
 27+  D7AB 00          > DB 0
 27+  D7AC 00          > DB 0
 27+  D7AD 00          > DB 0
 27+  D7AE 00          > DB 0
 27+  D7AF 00          > DB 0
 27+  D7B0 00          > DB 0
 27+  D7B1 00          > DB 0
 27+  D7B2 00          > DB 0
 27+  D7B3 00          > DB 0
 27+  D7B4 00          > DB 0
 27+  D7B5 00          > DB 0
 27+  D7B6 00          > DB 0
 27+  D7B7 00          > DB 0
 27+  D7B8 00          > DB 0
 27+  D7B9 00          > DB 0
 27+  D7BA 00          > DB 0
 27+  D7BB 00          > DB 0
 27+  D7BC 00          > DB 0
 27+  D7BD 00          > DB 0
 27+  D7BE 00          > DB 0
 27+  D7BF 00          > DB 0
 27+  D7C0 00          > DB 0
 27+  D7C1 00          > DB 0
 27+  D7C2 00          > DB 0
 27+  D7C3 00          > DB 0
 27+  D7C4 00          > DB 0
 27+  D7C5 00          > DB 0
 27+  D7C6 00          > DB 0
 27+  D7C7 00          > DB 0
 27+  D7C8 00          > DB 0
 27+  D7C9 00          > DB 0
 27+  D7CA 00          > DB 0
 27+  D7CB 00          > DB 0
 27+  D7CC 00          > DB 0
 27+  D7CD 00          > DB 0
 27+  D7CE 00          > DB 0
 27+  D7CF 00          > DB 0
 27+  D7D0 00          > DB 0
 27+  D7D1 00          > DB 0
 27+  D7D2 00          > DB 0
 27+  D7D3 00          > DB 0
 27+  D7D4 00          > DB 0
 27+  D7D5 00          > DB 0
 27+  D7D6 00          > DB 0
 27+  D7D7 00          > DB 0
 27+  D7D8 00          > DB 0
 27+  D7D9 00          > DB 0
 27+  D7DA 00          > DB 0
 27+  D7DB 00          > DB 0
 27+  D7DC 00          > DB 0
 27+  D7DD 00          > DB 0
 27+  D7DE 00          > DB 0
 27+  D7DF 00          > DB 0
 27+  D7E0 00          > DB 0
 27+  D7E1 00          > DB 0
 27+  D7E2 00          > DB 0
 27+  D7E3 00          > DB 0
 27+  D7E4 00          > DB 0
 27+  D7E5 00          > DB 0
 27+  D7E6 00          > DB 0
 27+  D7E7 00          > DB 0
 27+  D7E8 00          > DB 0
 27+  D7E9 00          > DB 0
 27+  D7EA 00          > DB 0
 27+  D7EB 00          > DB 0
 27+  D7EC 00          > DB 0
 27+  D7ED 00          > DB 0
 27+  D7EE 00          > DB 0
 27+  D7EF 00          > DB 0
 27+  D7F0 00          > DB 0
 27+  D7F1 00          > DB 0
 27+  D7F2 00          > DB 0
 27+  D7F3 00          > DB 0
 27+  D7F4 00          > DB 0
 27+  D7F5 00          > DB 0
 27+  D7F6 00          > DB 0
 27+  D7F7 00          > DB 0
 27+  D7F8 00          > DB 0
 27+  D7F9 00          > DB 0
 27+  D7FA 00          > DB 0
 27+  D7FB 00          > DB 0
 27+  D7FC 00          > DB 0
 27+  D7FD 00          > DB 0
 27+  D7FE 00          > DB 0
 27+  D7FF 00          > DB 0
 27+  D800 00          > DB 0
 27+  D801 00          > DB 0
 27+  D802 00          > DB 0
 27+  D803 00          > DB 0
 27+  D804 00          > DB 0
 27+  D805 00          > DB 0
 27+  D806 00          > DB 0
 27+  D807 00          > DB 0
 27+  D808 00          > DB 0
 27+  D809 00          > DB 0
 27+  D80A 00          > DB 0
 27+  D80B 00          > DB 0
 27+  D80C 00          > DB 0
 27+  D80D 00          > DB 0
 27+  D80E 00          > DB 0
 27+  D80F 00          > DB 0
 27+  D810 00          > DB 0
 27+  D811 00          > DB 0
 27+  D812 00          > DB 0
 27+  D813 00          > DB 0
 27+  D814 00          > DB 0
 27+  D815 00          > DB 0
 27+  D816 00          > DB 0
 27+  D817 00          > DB 0
 27+  D818 00          > DB 0
 27+  D819 00          > DB 0
 27+  D81A 00          > DB 0
 27+  D81B 00          > DB 0
 27+  D81C 00          > DB 0
 27+  D81D 00          > DB 0
 27+  D81E 00          > DB 0
 27+  D81F 00          > DB 0
 27+  D820 00          > DB 0
 27+  D821 00          > DB 0
 27+  D822 00          > DB 0
 27+  D823 00          > DB 0
 27+  D824 00          > DB 0
 27+  D825 00          > DB 0
 27+  D826 00          > DB 0
 27+  D827 00          > DB 0
 27+  D828 00          > DB 0
 27+  D829 00          > DB 0
 27+  D82A 00          > DB 0
 27+  D82B 00          > DB 0
 27+  D82C 00          > DB 0
 27+  D82D 00          > DB 0
 27+  D82E 00          > DB 0
 27+  D82F 00          > DB 0
 27+  D830 00          > DB 0
 27+  D831 00          > DB 0
 27+  D832 00          > DB 0
 27+  D833 00          > DB 0
 27+  D834 00          > DB 0
 27+  D835 00          > DB 0
 27+  D836 00          > DB 0
 27+  D837 00          > DB 0
 27+  D838 00          > DB 0
 27+  D839 00          > DB 0
 27+  D83A 00          > DB 0
 27+  D83B 00          > DB 0
 27+  D83C 00          > DB 0
 27+  D83D 00          > DB 0
 27+  D83E 00          > DB 0
 27+  D83F 00          > DB 0
 27+  D840 00          > DB 0
 27+  D841 00          > DB 0
 27+  D842 00          > DB 0
 27+  D843 00          > DB 0
 27+  D844 00          > DB 0
 27+  D845 00          > DB 0
 27+  D846 00          > DB 0
 27+  D847 00          > DB 0
 27+  D848 00          > DB 0
 27+  D849 00          > DB 0
 27+  D84A 00          > DB 0
 27+  D84B 00          > DB 0
 27+  D84C 00          > DB 0
 27+  D84D 00          > DB 0
 27+  D84E 00          > DB 0
 27+  D84F 00          > DB 0
 27+  D850 00          > DB 0
 27+  D851 00          > DB 0
 27+  D852 00          > DB 0
 27+  D853 00          > DB 0
 27+  D854 00          > DB 0
 27+  D855 00          > DB 0
 27+  D856 00          > DB 0
 27+  D857 00          > DB 0
 27+  D858 00          > DB 0
 27+  D859 00          > DB 0
 27+  D85A 00          > DB 0
 27+  D85B 00          > DB 0
 27+  D85C 00          > DB 0
 27+  D85D 00          > DB 0
 27+  D85E 00          > DB 0
 27+  D85F 00          > DB 0
 27+  D860 00          > DB 0
 27+  D861 00          > DB 0
 27+  D862 00          > DB 0
 27+  D863 00          > DB 0
 27+  D864 00          > DB 0
 27+  D865 00          > DB 0
 27+  D866 00          > DB 0
 27+  D867 00          > DB 0
 27+  D868 00          > DB 0
 27+  D869 00          > DB 0
 27+  D86A 00          > DB 0
 27+  D86B 00          > DB 0
 27+  D86C 00          > DB 0
 27+  D86D 00          > DB 0
 27+  D86E 00          > DB 0
 27+  D86F 00          > DB 0
 27+  D870 00          > DB 0
 27+  D871 00          > DB 0
 27+  D872 00          > DB 0
 27+  D873 00          > DB 0
 27+  D874 00          > DB 0
 27+  D875 00          > DB 0
 27+  D876 00          > DB 0
 27+  D877 00          > DB 0
 27+  D878 00          > DB 0
 27+  D879 00          > DB 0
 27+  D87A 00          > DB 0
 27+  D87B 00          > DB 0
 27+  D87C 00          > DB 0
 27+  D87D 00          > DB 0
 27+  D87E 00          > DB 0
 27+  D87F 00          > DB 0
 27+  D880 00          > DB 0
 27+  D881 00          > DB 0
 27+  D882 00          > DB 0
 27+  D883 00          > DB 0
 27+  D884 00          > DB 0
 27+  D885 00          > DB 0
 27+  D886 00          > DB 0
 27+  D887 00          > DB 0
 27+  D888 00          > DB 0
 27+  D889 00          > DB 0
 27+  D88A 00          > DB 0
 27+  D88B 00          > DB 0
 27+  D88C 00          > DB 0
 27+  D88D 00          > DB 0
 27+  D88E 00          > DB 0
 27+  D88F 00          > DB 0
 27+  D890 00          > DB 0
 27+  D891 00          > DB 0
 27+  D892 00          > DB 0
 27+  D893 00          > DB 0
 27+  D894 00          > DB 0
 27+  D895 00          > DB 0
 27+  D896 00          > DB 0
 27+  D897 00          > DB 0
 27+  D898 00          > DB 0
 27+  D899 00          > DB 0
 27+  D89A 00          > DB 0
 27+  D89B 00          > DB 0
 27+  D89C 00          > DB 0
 27+  D89D 00          > DB 0
 27+  D89E 00          > DB 0
 27+  D89F 00          > DB 0
 27+  D8A0 00          > DB 0
 27+  D8A1 00          > DB 0
 27+  D8A2 00          > DB 0
 27+  D8A3 00          > DB 0
 27+  D8A4 00          > DB 0
 27+  D8A5 00          > DB 0
 27+  D8A6 00          > DB 0
 27+  D8A7 00          > DB 0
 27+  D8A8 00          > DB 0
 27+  D8A9 00          > DB 0
 27+  D8AA 00          > DB 0
 27+  D8AB 00          > DB 0
 27+  D8AC 00          > DB 0
 27+  D8AD 00          > DB 0
 27+  D8AE 00          > DB 0
 27+  D8AF 00          > DB 0
 27+  D8B0 00          > DB 0
 27+  D8B1 00          > DB 0
 27+  D8B2 00          > DB 0
 27+  D8B3 00          > DB 0
 27+  D8B4 00          > DB 0
 27+  D8B5 00          > DB 0
 27+  D8B6 00          > DB 0
 27+  D8B7 00          > DB 0
 27+  D8B8 00          > DB 0
 27+  D8B9 00          > DB 0
 27+  D8BA 00          > DB 0
 27+  D8BB 00          > DB 0
 27+  D8BC 00          > DB 0
 27+  D8BD 00          > DB 0
 27+  D8BE 00          > DB 0
 27+  D8BF 00          > DB 0
 27+  D8C0 00          > DB 0
 27+  D8C1 00          > DB 0
 27+  D8C2 00          > DB 0
 27+  D8C3 00          > DB 0
 27+  D8C4 00          > DB 0
 27+  D8C5 00          > DB 0
 27+  D8C6 00          > DB 0
 27+  D8C7 00          > DB 0
 27+  D8C8 00          > DB 0
 27+  D8C9 00          > DB 0
 27+  D8CA 00          > DB 0
 27+  D8CB 00          > DB 0
 27+  D8CC 00          > DB 0
 27+  D8CD 00          > DB 0
 27+  D8CE 00          > DB 0
 27+  D8CF 00          > DB 0
 27+  D8D0 00          > DB 0
 27+  D8D1 00          > DB 0
 27+  D8D2 00          > DB 0
 27+  D8D3 00          > DB 0
 27+  D8D4 00          > DB 0
 27+  D8D5 00          > DB 0
 27+  D8D6 00          > DB 0
 27+  D8D7 00          > DB 0
 27+  D8D8 00          > DB 0
 27+  D8D9 00          > DB 0
 27+  D8DA 00          > DB 0
 27+  D8DB 00          > DB 0
 27+  D8DC 00          > DB 0
 27+  D8DD 00          > DB 0
 27+  D8DE 00          > DB 0
 27+  D8DF 00          > DB 0
 27+  D8E0 00          > DB 0
 27+  D8E1 00          > DB 0
 27+  D8E2 00          > DB 0
 27+  D8E3 00          > DB 0
 27+  D8E4 00          > DB 0
 27+  D8E5 00          > DB 0
 27+  D8E6 00          > DB 0
 27+  D8E7 00          > DB 0
 27+  D8E8 00          > DB 0
 27+  D8E9 00          > DB 0
 27+  D8EA 00          > DB 0
 27+  D8EB 00          > DB 0
 27+  D8EC 00          > DB 0
 27+  D8ED 00          > DB 0
 27+  D8EE 00          > DB 0
 27+  D8EF 00          > DB 0
 27+  D8F0 00          > DB 0
 27+  D8F1 00          > DB 0
 27+  D8F2 00          > DB 0
 27+  D8F3 00          > DB 0
 27+  D8F4 00          > DB 0
 27+  D8F5 00          > DB 0
 27+  D8F6 00          > DB 0
 27+  D8F7 00          > DB 0
 27+  D8F8 00          > DB 0
 27+  D8F9 00          > DB 0
 27+  D8FA 00          > DB 0
 27+  D8FB 00          > DB 0
 27+  D8FC 00          > DB 0
 27+  D8FD 00          > DB 0
 27+  D8FE 00          > DB 0
 27+  D8FF 00          > DB 0
 27+  D900 00          > DB 0
 27+  D901 00          > DB 0
 27+  D902 00          > DB 0
 27+  D903 00          > DB 0
 27+  D904 00          > DB 0
 27+  D905 00          > DB 0
 27+  D906 00          > DB 0
 27+  D907 00          > DB 0
 27+  D908 00          > DB 0
 27+  D909 00          > DB 0
 27+  D90A 00          > DB 0
 27+  D90B 00          > DB 0
 27+  D90C 00          > DB 0
 27+  D90D 00          > DB 0
 27+  D90E 00          > DB 0
 27+  D90F 00          > DB 0
 27+  D910 00          > DB 0
 27+  D911 00          > DB 0
 27+  D912 00          > DB 0
 27+  D913 00          > DB 0
 27+  D914 00          > DB 0
 27+  D915 00          > DB 0
 27+  D916 00          > DB 0
 27+  D917 00          > DB 0
 27+  D918 00          > DB 0
 27+  D919 00          > DB 0
 27+  D91A 00          > DB 0
 27+  D91B 00          > DB 0
 27+  D91C 00          > DB 0
 27+  D91D 00          > DB 0
 27+  D91E 00          > DB 0
 27+  D91F 00          > DB 0
 27+  D920 00          > DB 0
 27+  D921 00          > DB 0
 27+  D922 00          > DB 0
 27+  D923 00          > DB 0
 27+  D924 00          > DB 0
 27+  D925 00          > DB 0
 27+  D926 00          > DB 0
 27+  D927 00          > DB 0
 27+  D928 00          > DB 0
 27+  D929 00          > DB 0
 27+  D92A 00          > DB 0
 27+  D92B 00          > DB 0
 27+  D92C 00          > DB 0
 27+  D92D 00          > DB 0
 27+  D92E 00          > DB 0
 27+  D92F 00          > DB 0
 27+  D930 00          > DB 0
 27+  D931 00          > DB 0
 27+  D932 00          > DB 0
 27+  D933 00          > DB 0
 27+  D934 00          > DB 0
 27+  D935 00          > DB 0
 27+  D936 00          > DB 0
 27+  D937 00          > DB 0
 27+  D938 00          > DB 0
 27+  D939 00          > DB 0
 27+  D93A 00          > DB 0
 27+  D93B 00          > DB 0
 27+  D93C 00          > DB 0
 27+  D93D 00          > DB 0
 27+  D93E 00          > DB 0
 27+  D93F 00          > DB 0
 27+  D940 00          > DB 0
 27+  D941 00          > DB 0
 27+  D942 00          > DB 0
 27+  D943 00          > DB 0
 27+  D944 00          > DB 0
 27+  D945 00          > DB 0
 27+  D946 00          > DB 0
 27+  D947 00          > DB 0
 27+  D948 00          > DB 0
 27+  D949 00          > DB 0
 27+  D94A 00          > DB 0
 27+  D94B 00          > DB 0
 27+  D94C 00          > DB 0
 27+  D94D 00          > DB 0
 27+  D94E 00          > DB 0
 27+  D94F 00          > DB 0
 27+  D950 00          > DB 0
 27+  D951 00          > DB 0
 27+  D952 00          > DB 0
 27+  D953 00          > DB 0
 27+  D954 00          > DB 0
 27+  D955 00          > DB 0
 27+  D956 00          > DB 0
 27+  D957 00          > DB 0
 27+  D958 00          > DB 0
 27+  D959 00          > DB 0
 27+  D95A 00          > DB 0
 27+  D95B 00          > DB 0
 27+  D95C 00          > DB 0
 27+  D95D 00          > DB 0
 27+  D95E 00          > DB 0
 27+  D95F 00          > DB 0
 27+  D960 00          > DB 0
 27+  D961 00          > DB 0
 27+  D962 00          > DB 0
 27+  D963 00          > DB 0
 27+  D964 00          > DB 0
 27+  D965 00          > DB 0
 27+  D966 00          > DB 0
 27+  D967 00          > DB 0
 27+  D968 00          > DB 0
 27+  D969 00          > DB 0
 27+  D96A 00          > DB 0
 27+  D96B 00          > DB 0
 27+  D96C 00          > DB 0
 27+  D96D 00          > DB 0
 27+  D96E 00          > DB 0
 27+  D96F 00          > DB 0
 27+  D970 00          > DB 0
 27+  D971 00          > DB 0
 27+  D972 00          > DB 0
 27+  D973 00          > DB 0
 27+  D974 00          > DB 0
 27+  D975 00          > DB 0
 27+  D976 00          > DB 0
 27+  D977 00          > DB 0
 27+  D978 00          > DB 0
 27+  D979 00          > DB 0
 27+  D97A 00          > DB 0
 27+  D97B 00          > DB 0
 27+  D97C 00          > DB 0
 27+  D97D 00          > DB 0
 27+  D97E 00          > DB 0
 27+  D97F 00          > DB 0
 27+  D980 00          > DB 0
 27+  D981 00          > DB 0
 27+  D982 00          > DB 0
 27+  D983 00          > DB 0
 27+  D984 00          > DB 0
 27+  D985 00          > DB 0
 27+  D986 00          > DB 0
 27+  D987 00          > DB 0
 27+  D988 00          > DB 0
 27+  D989 00          > DB 0
 27+  D98A 00          > DB 0
 27+  D98B 00          > DB 0
 27+  D98C 00          > DB 0
 27+  D98D 00          > DB 0
 27+  D98E 00          > DB 0
 27+  D98F 00          > DB 0
 27+  D990 00          > DB 0
 27+  D991 00          > DB 0
 27+  D992 00          > DB 0
 27+  D993 00          > DB 0
 27+  D994 00          > DB 0
 27+  D995 00          > DB 0
 27+  D996 00          > DB 0
 27+  D997 00          > DB 0
 27+  D998 00          > DB 0
 27+  D999 00          > DB 0
 27+  D99A 00          > DB 0
 27+  D99B 00          > DB 0
 27+  D99C 00          > DB 0
 27+  D99D 00          > DB 0
 27+  D99E 00          > DB 0
 27+  D99F 00          > DB 0
 27+  D9A0 00          > DB 0
 27+  D9A1 00          > DB 0
 27+  D9A2 00          > DB 0
 27+  D9A3 00          > DB 0
 27+  D9A4 00          > DB 0
 27+  D9A5 00          > DB 0
 27+  D9A6 00          > DB 0
 27+  D9A7 00          > DB 0
 27+  D9A8 00          > DB 0
 27+  D9A9 00          > DB 0
 27+  D9AA 00          > DB 0
 27+  D9AB 00          > DB 0
 27+  D9AC 00          > DB 0
 27+  D9AD 00          > DB 0
 27+  D9AE 00          > DB 0
 27+  D9AF 00          > DB 0
 27+  D9B0 00          > DB 0
 27+  D9B1 00          > DB 0
 27+  D9B2 00          > DB 0
 27+  D9B3 00          > DB 0
 27+  D9B4 00          > DB 0
 27+  D9B5 00          > DB 0
 27+  D9B6 00          > DB 0
 27+  D9B7 00          > DB 0
 27+  D9B8 00          > DB 0
 27+  D9B9 00          > DB 0
 27+  D9BA 00          > DB 0
 27+  D9BB 00          > DB 0
 27+  D9BC 00          > DB 0
 27+  D9BD 00          > DB 0
 27+  D9BE 00          > DB 0
 27+  D9BF 00          > DB 0
 27+  D9C0 00          > DB 0
 27+  D9C1 00          > DB 0
 27+  D9C2 00          > DB 0
 27+  D9C3 00          > DB 0
 27+  D9C4 00          > DB 0
 27+  D9C5 00          > DB 0
 27+  D9C6 00          > DB 0
 27+  D9C7 00          > DB 0
 27+  D9C8 00          > DB 0
 27+  D9C9 00          > DB 0
 27+  D9CA 00          > DB 0
 27+  D9CB 00          > DB 0
 27+  D9CC 00          > DB 0
 27+  D9CD 00          > DB 0
 27+  D9CE 00          > DB 0
 27+  D9CF 00          > DB 0
 27+  D9D0 00          > DB 0
 27+  D9D1 00          > DB 0
 27+  D9D2 00          > DB 0
 27+  D9D3 00          > DB 0
 27+  D9D4 00          > DB 0
 27+  D9D5 00          > DB 0
 27+  D9D6 00          > DB 0
 27+  D9D7 00          > DB 0
 27+  D9D8 00          > DB 0
 27+  D9D9 00          > DB 0
 27+  D9DA 00          > DB 0
 27+  D9DB 00          > DB 0
 27+  D9DC 00          > DB 0
 27+  D9DD 00          > DB 0
 27+  D9DE 00          > DB 0
 27+  D9DF 00          > DB 0
 27+  D9E0 00          > DB 0
 27+  D9E1 00          > DB 0
 27+  D9E2 00          > DB 0
 27+  D9E3 00          > DB 0
 27+  D9E4 00          > DB 0
 27+  D9E5 00          > DB 0
 27+  D9E6 00          > DB 0
 27+  D9E7 00          > DB 0
 27+  D9E8 00          > DB 0
 27+  D9E9 00          > DB 0
 27+  D9EA 00          > DB 0
 27+  D9EB 00          > DB 0
 27+  D9EC 00          > DB 0
 27+  D9ED 00          > DB 0
 27+  D9EE 00          > DB 0
 27+  D9EF 00          > DB 0
 27+  D9F0 00          > DB 0
 27+  D9F1 00          > DB 0
 27+  D9F2 00          > DB 0
 27+  D9F3 00          > DB 0
 27+  D9F4 00          > DB 0
 27+  D9F5 00          > DB 0
 27+  D9F6 00          > DB 0
 27+  D9F7 00          > DB 0
 27+  D9F8 00          > DB 0
 27+  D9F9 00          > DB 0
 27+  D9FA 00          > DB 0
 27+  D9FB 00          > DB 0
 27+  D9FC 00          > DB 0
 27+  D9FD 00          > DB 0
 27+  D9FE 00          > DB 0
 27+  D9FF 00          > DB 0
 27+  DA00 00          > DB 0
 27+  DA01 00          > DB 0
 27+  DA02 00          > DB 0
 27+  DA03 00          > DB 0
 27+  DA04 00          > DB 0
 27+  DA05 00          > DB 0
 27+  DA06 00          > DB 0
 27+  DA07 00          > DB 0
 27+  DA08 00          > DB 0
 27+  DA09 00          > DB 0
 27+  DA0A 00          > DB 0
 27+  DA0B 00          > DB 0
 27+  DA0C 00          > DB 0
 27+  DA0D 00          > DB 0
 27+  DA0E 00          > DB 0
 27+  DA0F 00          > DB 0
 27+  DA10 00          > DB 0
 27+  DA11 00          > DB 0
 27+  DA12 00          > DB 0
 27+  DA13 00          > DB 0
 27+  DA14 00          > DB 0
 27+  DA15 00          > DB 0
 27+  DA16 00          > DB 0
 27+  DA17 00          > DB 0
 27+  DA18 00          > DB 0
 27+  DA19 00          > DB 0
 27+  DA1A 00          > DB 0
 27+  DA1B 00          > DB 0
 27+  DA1C 00          > DB 0
 27+  DA1D 00          > DB 0
 27+  DA1E 00          > DB 0
 27+  DA1F 00          > DB 0
 27+  DA20 00          > DB 0
 27+  DA21 00          > DB 0
 27+  DA22 00          > DB 0
 27+  DA23 00          > DB 0
 27+  DA24 00          > DB 0
 27+  DA25 00          > DB 0
 27+  DA26 00          > DB 0
 27+  DA27 00          > DB 0
 27+  DA28 00          > DB 0
 27+  DA29 00          > DB 0
 27+  DA2A 00          > DB 0
 27+  DA2B 00          > DB 0
 27+  DA2C 00          > DB 0
 27+  DA2D 00          > DB 0
 27+  DA2E 00          > DB 0
 27+  DA2F 00          > DB 0
 27+  DA30 00          > DB 0
 27+  DA31 00          > DB 0
 27+  DA32 00          > DB 0
 27+  DA33 00          > DB 0
 27+  DA34 00          > DB 0
 27+  DA35 00          > DB 0
 27+  DA36 00          > DB 0
 27+  DA37 00          > DB 0
 27+  DA38 00          > DB 0
 27+  DA39 00          > DB 0
 27+  DA3A 00          > DB 0
 27+  DA3B 00          > DB 0
 27+  DA3C 00          > DB 0
 27+  DA3D 00          > DB 0
 27+  DA3E 00          > DB 0
 27+  DA3F 00          > DB 0
 27+  DA40 00          > DB 0
 27+  DA41 00          > DB 0
 27+  DA42 00          > DB 0
 27+  DA43 00          > DB 0
 27+  DA44 00          > DB 0
 27+  DA45 00          > DB 0
 27+  DA46 00          > DB 0
 27+  DA47 00          > DB 0
 27+  DA48 00          > DB 0
 27+  DA49 00          > DB 0
 27+  DA4A 00          > DB 0
 27+  DA4B 00          > DB 0
 27+  DA4C 00          > DB 0
 27+  DA4D 00          > DB 0
 27+  DA4E 00          > DB 0
 27+  DA4F 00          > DB 0
 27+  DA50 00          > DB 0
 27+  DA51 00          > DB 0
 27+  DA52 00          > DB 0
 27+  DA53 00          > DB 0
 27+  DA54 00          > DB 0
 27+  DA55 00          > DB 0
 27+  DA56 00          > DB 0
 27+  DA57 00          > DB 0
 27+  DA58 00          > DB 0
 27+  DA59 00          > DB 0
 27+  DA5A 00          > DB 0
 27+  DA5B 00          > DB 0
 27+  DA5C 00          > DB 0
 27+  DA5D 00          > DB 0
 27+  DA5E 00          > DB 0
 27+  DA5F 00          > DB 0
 27+  DA60 00          > DB 0
 27+  DA61 00          > DB 0
 27+  DA62 00          > DB 0
 27+  DA63 00          > DB 0
 27+  DA64 00          > DB 0
 27+  DA65 00          > DB 0
 27+  DA66 00          > DB 0
 27+  DA67 00          > DB 0
 27+  DA68 00          > DB 0
 27+  DA69 00          > DB 0
 27+  DA6A 00          > DB 0
 27+  DA6B 00          > DB 0
 27+  DA6C 00          > DB 0
 27+  DA6D 00          > DB 0
 27+  DA6E 00          > DB 0
 27+  DA6F 00          > DB 0
 27+  DA70 00          > DB 0
 27+  DA71 00          > DB 0
 27+  DA72 00          > DB 0
 27+  DA73 00          > DB 0
 27+  DA74 00          > DB 0
 27+  DA75 00          > DB 0
 27+  DA76 00          > DB 0
 27+  DA77 00          > DB 0
 27+  DA78 00          > DB 0
 27+  DA79 00          > DB 0
 27+  DA7A 00          > DB 0
 27+  DA7B 00          > DB 0
 27+  DA7C 00          > DB 0
 27+  DA7D 00          > DB 0
 27+  DA7E 00          > DB 0
 27+  DA7F 00          > DB 0
 27+  DA80 00          > DB 0
 27+  DA81 00          > DB 0
 27+  DA82 00          > DB 0
 27+  DA83 00          > DB 0
 27+  DA84 00          > DB 0
 27+  DA85 00          > DB 0
 27+  DA86 00          > DB 0
 27+  DA87 00          > DB 0
 27+  DA88 00          > DB 0
 27+  DA89 00          > DB 0
 27+  DA8A 00          > DB 0
 27+  DA8B 00          > DB 0
 27+  DA8C 00          > DB 0
 27+  DA8D 00          > DB 0
 27+  DA8E 00          > DB 0
 27+  DA8F 00          > DB 0
 27+  DA90 00          > DB 0
 27+  DA91 00          > DB 0
 27+  DA92 00          > DB 0
 27+  DA93 00          > DB 0
 27+  DA94 00          > DB 0
 27+  DA95 00          > DB 0
 27+  DA96 00          > DB 0
 27+  DA97 00          > DB 0
 27+  DA98 00          > DB 0
 27+  DA99 00          > DB 0
 27+  DA9A 00          > DB 0
 27+  DA9B 00          > DB 0
 27+  DA9C 00          > DB 0
 27+  DA9D 00          > DB 0
 27+  DA9E 00          > DB 0
 27+  DA9F 00          > DB 0
 27+  DAA0 00          > DB 0
 27+  DAA1 00          > DB 0
 27+  DAA2 00          > DB 0
 27+  DAA3 00          > DB 0
 27+  DAA4 00          > DB 0
 27+  DAA5 00          > DB 0
 27+  DAA6 00          > DB 0
 27+  DAA7 00          > DB 0
 27+  DAA8 00          > DB 0
 27+  DAA9 00          > DB 0
 27+  DAAA 00          > DB 0
 27+  DAAB 00          > DB 0
 27+  DAAC 00          > DB 0
 27+  DAAD 00          > DB 0
 27+  DAAE 00          > DB 0
 27+  DAAF 00          > DB 0
 27+  DAB0 00          > DB 0
 27+  DAB1 00          > DB 0
 27+  DAB2 00          > DB 0
 27+  DAB3 00          > DB 0
 27+  DAB4 00          > DB 0
 27+  DAB5 00          > DB 0
 27+  DAB6 00          > DB 0
 27+  DAB7 00          > DB 0
 27+  DAB8 00          > DB 0
 27+  DAB9 00          > DB 0
 27+  DABA 00          > DB 0
 27+  DABB 00          > DB 0
 27+  DABC 00          > DB 0
 27+  DABD 00          > DB 0
 27+  DABE 00          > DB 0
 27+  DABF 00          > DB 0
 27+  DAC0 00          > DB 0
 27+  DAC1 00          > DB 0
 27+  DAC2 00          > DB 0
 27+  DAC3 00          > DB 0
 27+  DAC4 00          > DB 0
 27+  DAC5 00          > DB 0
 27+  DAC6 00          > DB 0
 27+  DAC7 00          > DB 0
 27+  DAC8 00          > DB 0
 27+  DAC9 00          > DB 0
 27+  DACA 00          > DB 0
 27+  DACB 00          > DB 0
 27+  DACC 00          > DB 0
 27+  DACD 00          > DB 0
 27+  DACE 00          > DB 0
 27+  DACF 00          > DB 0
 27+  DAD0 00          > DB 0
 27+  DAD1 00          > DB 0
 27+  DAD2 00          > DB 0
 27+  DAD3 00          > DB 0
 27+  DAD4 00          > DB 0
 27+  DAD5 00          > DB 0
 27+  DAD6 00          > DB 0
 27+  DAD7 00          > DB 0
 27+  DAD8 00          > DB 0
 27+  DAD9 00          > DB 0
 27+  DADA 00          > DB 0
 27+  DADB 00          > DB 0
 27+  DADC 00          > DB 0
 27+  DADD 00          > DB 0
 27+  DADE 00          > DB 0
 27+  DADF 00          > DB 0
 27+  DAE0 00          > DB 0
 27+  DAE1 00          > DB 0
 27+  DAE2 00          > DB 0
 27+  DAE3 00          > DB 0
 27+  DAE4 00          > DB 0
 27+  DAE5 00          > DB 0
 27+  DAE6 00          > DB 0
 27+  DAE7 00          > DB 0
 27+  DAE8 00          > DB 0
 27+  DAE9 00          > DB 0
 27+  DAEA 00          > DB 0
 27+  DAEB 00          > DB 0
 27+  DAEC 00          > DB 0
 27+  DAED 00          > DB 0
 27+  DAEE 00          > DB 0
 27+  DAEF 00          > DB 0
 27+  DAF0 00          > DB 0
 27+  DAF1 00          > DB 0
 27+  DAF2 00          > DB 0
 27+  DAF3 00          > DB 0
 27+  DAF4 00          > DB 0
 27+  DAF5 00          > DB 0
 27+  DAF6 00          > DB 0
 27+  DAF7 00          > DB 0
 27+  DAF8 00          > DB 0
 27+  DAF9 00          > DB 0
 27+  DAFA 00          > DB 0
 27+  DAFB 00          > DB 0
 27+  DAFC 00          > DB 0
 27+  DAFD 00          > DB 0
 27+  DAFE 00          > DB 0
 27+  DAFF 00          > DB 0
 27+  DB00 00          > DB 0
 27+  DB01 00          > DB 0
 27+  DB02 00          > DB 0
 27+  DB03 00          > DB 0
 27+  DB04 00          > DB 0
 27+  DB05 00          > DB 0
 27+  DB06 00          > DB 0
 27+  DB07 00          > DB 0
 27+  DB08 00          > DB 0
 27+  DB09 00          > DB 0
 27+  DB0A 00          > DB 0
 27+  DB0B 00          > DB 0
 27+  DB0C 00          > DB 0
 27+  DB0D 00          > DB 0
 27+  DB0E 00          > DB 0
 27+  DB0F 00          > DB 0
 27+  DB10 00          > DB 0
 27+  DB11 00          > DB 0
 27+  DB12 00          > DB 0
 27+  DB13 00          > DB 0
 27+  DB14 00          > DB 0
 27+  DB15 00          > DB 0
 27+  DB16 00          > DB 0
 27+  DB17 00          > DB 0
 27+  DB18 00          > DB 0
 27+  DB19 00          > DB 0
 27+  DB1A 00          > DB 0
 27+  DB1B 00          > DB 0
 27+  DB1C 00          > DB 0
 27+  DB1D 00          > DB 0
 27+  DB1E 00          > DB 0
 27+  DB1F 00          > DB 0
 27+  DB20 00          > DB 0
 27+  DB21 00          > DB 0
 27+  DB22 00          > DB 0
 27+  DB23 00          > DB 0
 27+  DB24 00          > DB 0
 27+  DB25 00          > DB 0
 27+  DB26 00          > DB 0
 27+  DB27 00          > DB 0
 27+  DB28 00          > DB 0
 27+  DB29 00          > DB 0
 27+  DB2A 00          > DB 0
 27+  DB2B 00          > DB 0
 27+  DB2C 00          > DB 0
 27+  DB2D 00          > DB 0
 27+  DB2E 00          > DB 0
 27+  DB2F 00          > DB 0
 27+  DB30 00          > DB 0
 27+  DB31 00          > DB 0
 27+  DB32 00          > DB 0
 27+  DB33 00          > DB 0
 27+  DB34 00          > DB 0
 27+  DB35 00          > DB 0
 27+  DB36 00          > DB 0
 27+  DB37 00          > DB 0
 27+  DB38 00          > DB 0
 27+  DB39 00          > DB 0
 27+  DB3A 00          > DB 0
 27+  DB3B 00          > DB 0
 27+  DB3C 00          > DB 0
 27+  DB3D 00          > DB 0
 27+  DB3E 00          > DB 0
 27+  DB3F 00          > DB 0
 27+  DB40 00          > DB 0
 27+  DB41 00          > DB 0
 27+  DB42 00          > DB 0
 27+  DB43 00          > DB 0
 27+  DB44 00          > DB 0
 27+  DB45 00          > DB 0
 27+  DB46 00          > DB 0
 27+  DB47 00          > DB 0
 27+  DB48 00          > DB 0
 27+  DB49 00          > DB 0
 27+  DB4A 00          > DB 0
 27+  DB4B 00          > DB 0
 27+  DB4C 00          > DB 0
 27+  DB4D 00          > DB 0
 27+  DB4E 00          > DB 0
 27+  DB4F 00          > DB 0
 27+  DB50 00          > DB 0
 27+  DB51 00          > DB 0
 27+  DB52 00          > DB 0
 27+  DB53 00          > DB 0
 27+  DB54 00          > DB 0
 27+  DB55 00          > DB 0
 27+  DB56 00          > DB 0
 27+  DB57 00          > DB 0
 27+  DB58 00          > DB 0
 27+  DB59 00          > DB 0
 27+  DB5A 00          > DB 0
 27+  DB5B 00          > DB 0
 27+  DB5C 00          > DB 0
 27+  DB5D 00          > DB 0
 27+  DB5E 00          > DB 0
 27+  DB5F 00          > DB 0
 27+  DB60 00          > DB 0
 27+  DB61 00          > DB 0
 27+  DB62 00          > DB 0
 27+  DB63 00          > DB 0
 27+  DB64 00          > DB 0
 27+  DB65 00          > DB 0
 28+  DB66
# file closed: variables.asm
743   DB66              var_ram_func:
744   DB66 00          > DB 0
744   DB67 00          > DB 0
744   DB68 00          > DB 0
744   DB69 00          > DB 0
744   DB6A 00          > DB 0
744   DB6B 00          > DB 0
744   DB6C 00          > DB 0
744   DB6D 00          > DB 0
744   DB6E 00          > DB 0
744   DB6F 00          > DB 0
744   DB70 00          > DB 0
744   DB71 00          > DB 0
744   DB72 00          > DB 0
744   DB73 00          > DB 0
744   DB74 00          > DB 0
744   DB75 00          > DB 0
744   DB76 00          > DB 0
744   DB77 00          > DB 0
744   DB78 00          > DB 0
744   DB79 00          > DB 0
744   DB7A 00          > DB 0
744   DB7B 00          > DB 0
744   DB7C 00          > DB 0
744   DB7D 00          > DB 0
744   DB7E 00          > DB 0
744   DB7F 00          > DB 0
744   DB80 00          > DB 0
744   DB81 00          > DB 0
744   DB82 00          > DB 0
744   DB83 00          > DB 0
744   DB84 00          > DB 0
744   DB85 00          > DB 0
744   DB86 00          > DB 0
744   DB87 00          > DB 0
744   DB88 00          > DB 0
744   DB89 00          > DB 0
744   DB8A 00          > DB 0
744   DB8B 00          > DB 0
744   DB8C 00          > DB 0
744   DB8D 00          > DB 0
744   DB8E 00          > DB 0
744   DB8F 00          > DB 0
744   DB90 00          > DB 0
744   DB91 00          > DB 0
744   DB92 00          > DB 0
744   DB93 00          > DB 0
744   DB94 00          > DB 0
744   DB95 00          > DB 0
744   DB96 00          > DB 0
744   DB97 00          > DB 0
744   DB98 00          > DB 0
744   DB99 00          > DB 0
744   DB9A 00          > DB 0
744   DB9B 00          > DB 0
744   DB9C 00          > DB 0
744   DB9D 00          > DB 0
744   DB9E 00          > DB 0
744   DB9F 00          > DB 0
744   DBA0 00          > DB 0
744   DBA1 00          > DB 0
744   DBA2 00          > DB 0
744   DBA3 00          > DB 0
744   DBA4 00          > DB 0
744   DBA5 00          > DB 0
744   DBA6 00          > DB 0
744   DBA7 00          > DB 0
744   DBA8 00          > DB 0
744   DBA9 00          > DB 0
744   DBAA 00          > DB 0
744   DBAB 00          > DB 0
744   DBAC 00          > DB 0
744   DBAD 00          > DB 0
744   DBAE 00          > DB 0
744   DBAF 00          > DB 0
744   DBB0 00          > DB 0
744   DBB1 00          > DB 0
744   DBB2 00          > DB 0
744   DBB3 00          > DB 0
744   DBB4 00          > DB 0
744   DBB5 00          > DB 0
744   DBB6 00          > DB 0
744   DBB7 00          > DB 0
744   DBB8 00          > DB 0
744   DBB9 00          > DB 0
744   DBBA 00          > DB 0
744   DBBB 00          > DB 0
744   DBBC 00          > DB 0
744   DBBD 00          > DB 0
744   DBBE 00          > DB 0
744   DBBF 00          > DB 0
744   DBC0 00          > DB 0
744   DBC1 00          > DB 0
744   DBC2 00          > DB 0
744   DBC3 00          > DB 0
744   DBC4 00          > DB 0
744   DBC5 00          > DB 0
744   DBC6 00          > DB 0
744   DBC7 00          > DB 0
744   DBC8 00          > DB 0
744   DBC9 00          > DB 0
744   DBCA 00          > DB 0
744   DBCB 00          > DB 0
744   DBCC 00          > DB 0
744   DBCD 00          > DB 0
744   DBCE 00          > DB 0
744   DBCF 00          > DB 0
744   DBD0 00          > DB 0
744   DBD1 00          > DB 0
744   DBD2 00          > DB 0
744   DBD3 00          > DB 0
744   DBD4 00          > DB 0
744   DBD5 00          > DB 0
744   DBD6 00          > DB 0
744   DBD7 00          > DB 0
744   DBD8 00          > DB 0
744   DBD9 00          > DB 0
744   DBDA 00          > DB 0
744   DBDB 00          > DB 0
744   DBDC 00          > DB 0
744   DBDD 00          > DB 0
744   DBDE 00          > DB 0
744   DBDF 00          > DB 0
744   DBE0 00          > DB 0
744   DBE1 00          > DB 0
744   DBE2 00          > DB 0
744   DBE3 00          > DB 0
744   DBE4 00          > DB 0
744   DBE5 00          > DB 0
744   DBE6 00          > DB 0
744   DBE7 00          > DB 0
744   DBE8 00          > DB 0
744   DBE9 00          > DB 0
744   DBEA 00          > DB 0
744   DBEB 00          > DB 0
744   DBEC 00          > DB 0
744   DBED 00          > DB 0
744   DBEE 00          > DB 0
744   DBEF 00          > DB 0
744   DBF0 00          > DB 0
744   DBF1 00          > DB 0
744   DBF2 00          > DB 0
744   DBF3 00          > DB 0
744   DBF4 00          > DB 0
744   DBF5 00          > DB 0
744   DBF6 00          > DB 0
744   DBF7 00          > DB 0
744   DBF8 00          > DB 0
744   DBF9 00          > DB 0
744   DBFA 00          > DB 0
744   DBFB 00          > DB 0
744   DBFC 00          > DB 0
744   DBFD 00          > DB 0
744   DBFE 00          > DB 0
744   DBFF 00          > DB 0
744   DC00 00          > DB 0
744   DC01 00          > DB 0
744   DC02 00          > DB 0
744   DC03 00          > DB 0
744   DC04 00          > DB 0
744   DC05 00          > DB 0
744   DC06 00          > DB 0
744   DC07 00          > DB 0
744   DC08 00          > DB 0
744   DC09 00          > DB 0
744   DC0A 00          > DB 0
744   DC0B 00          > DB 0
744   DC0C 00          > DB 0
744   DC0D 00          > DB 0
744   DC0E 00          > DB 0
744   DC0F 00          > DB 0
744   DC10 00          > DB 0
744   DC11 00          > DB 0
744   DC12 00          > DB 0
744   DC13 00          > DB 0
744   DC14 00          > DB 0
744   DC15 00          > DB 0
744   DC16 00          > DB 0
744   DC17 00          > DB 0
744   DC18 00          > DB 0
744   DC19 00          > DB 0
744   DC1A 00          > DB 0
744   DC1B 00          > DB 0
744   DC1C 00          > DB 0
744   DC1D 00          > DB 0
744   DC1E 00          > DB 0
744   DC1F 00          > DB 0
744   DC20 00          > DB 0
744   DC21 00          > DB 0
744   DC22 00          > DB 0
744   DC23 00          > DB 0
744   DC24 00          > DB 0
744   DC25 00          > DB 0
744   DC26 00          > DB 0
744   DC27 00          > DB 0
744   DC28 00          > DB 0
744   DC29 00          > DB 0
744   DC2A 00          > DB 0
744   DC2B 00          > DB 0
744   DC2C 00          > DB 0
744   DC2D 00          > DB 0
744   DC2E 00          > DB 0
744   DC2F 00          > DB 0
744   DC30 00          > DB 0
744   DC31 00          > DB 0
744   DC32 00          > DB 0
744   DC33 00          > DB 0
744   DC34 00          > DB 0
744   DC35 00          > DB 0
744   DC36 00          > DB 0
744   DC37 00          > DB 0
744   DC38 00          > DB 0
744   DC39 00          > DB 0
744   DC3A 00          > DB 0
744   DC3B 00          > DB 0
744   DC3C 00          > DB 0
744   DC3D 00          > DB 0
744   DC3E 00          > DB 0
744   DC3F 00          > DB 0
744   DC40 00          > DB 0
744   DC41 00          > DB 0
744   DC42 00          > DB 0
744   DC43 00          > DB 0
744   DC44 00          > DB 0
744   DC45 00          > DB 0
744   DC46 00          > DB 0
744   DC47 00          > DB 0
744   DC48 00          > DB 0
744   DC49 00          > DB 0
744   DC4A 00          > DB 0
744   DC4B 00          > DB 0
744   DC4C 00          > DB 0
744   DC4D 00          > DB 0
744   DC4E 00          > DB 0
744   DC4F 00          > DB 0
744   DC50 00          > DB 0
744   DC51 00          > DB 0
744   DC52 00          > DB 0
744   DC53 00          > DB 0
744   DC54 00          > DB 0
744   DC55 00          > DB 0
744   DC56 00          > DB 0
744   DC57 00          > DB 0
744   DC58 00          > DB 0
744   DC59 00          > DB 0
744   DC5A 00          > DB 0
744   DC5B 00          > DB 0
744   DC5C 00          > DB 0
744   DC5D 00          > DB 0
744   DC5E 00          > DB 0
744   DC5F 00          > DB 0
744   DC60 00          > DB 0
744   DC61 00          > DB 0
744   DC62 00          > DB 0
744   DC63 00          > DB 0
744   DC64 00          > DB 0
744   DC65 00          > DB 0
745   DC66                  ASSERT $ < #EFF0
746   DC66
747   DC66              ; Magic vectors
748   DC66                  ORG #F000
749   F000              Exit_vector:
750   F000                  ORG #F008
751   F008              Readout_vector:
752   F008
753   F008                  ORG #FFBE
754   FFBE              Stack_top:
755   FFBE                  ORG #FFC0
756   FFC0              Ulaplus_pallete:
757   FFC0 00          > DB 0
757   FFC1 00          > DB 0
757   FFC2 00          > DB 0
757   FFC3 00          > DB 0
757   FFC4 00          > DB 0
757   FFC5 00          > DB 0
757   FFC6 00          > DB 0
757   FFC7 00          > DB 0
757   FFC8 00          > DB 0
757   FFC9 00          > DB 0
757   FFCA 00          > DB 0
757   FFCB 00          > DB 0
757   FFCC 00          > DB 0
757   FFCD 00          > DB 0
757   FFCE 00          > DB 0
757   FFCF 00          > DB 0
757   FFD0 00          > DB 0
757   FFD1 00          > DB 0
757   FFD2 00          > DB 0
757   FFD3 00          > DB 0
757   FFD4 00          > DB 0
757   FFD5 00          > DB 0
757   FFD6 00          > DB 0
757   FFD7 00          > DB 0
757   FFD8 00          > DB 0
757   FFD9 00          > DB 0
757   FFDA 00          > DB 0
757   FFDB 00          > DB 0
757   FFDC 00          > DB 0
757   FFDD 00          > DB 0
757   FFDE 00          > DB 0
757   FFDF 00          > DB 0
757   FFE0 00          > DB 0
757   FFE1 00          > DB 0
757   FFE2 00          > DB 0
757   FFE3 00          > DB 0
757   FFE4 00          > DB 0
757   FFE5 00          > DB 0
757   FFE6 00          > DB 0
757   FFE7 00          > DB 0
757   FFE8 00          > DB 0
757   FFE9 00          > DB 0
757   FFEA 00          > DB 0
757   FFEB 00          > DB 0
757   FFEC 00          > DB 0
757   FFED 00          > DB 0
757   FFEE 00          > DB 0
757   FFEF 00          > DB 0
757   FFF0 00          > DB 0
757   FFF1 00          > DB 0
757   FFF2 00          > DB 0
757   FFF3 00          > DB 0
757   FFF4 00          > DB 0
757   FFF5 00          > DB 0
757   FFF6 00          > DB 0
757   FFF7 00          > DB 0
757   FFF8 00          > DB 0
757   FFF9 00          > DB 0
757   FFFA 00          > DB 0
757   FFFB 00          > DB 0
757   FFFC 00          > DB 0
757   FFFD 00          > DB 0
757   FFFE 00          > DB 0
757   FFFF 00          > DB 0
758   0000
759   0000
760   0000                  CSPECTMAP "main.map"
761   0000                  SAVEBIN "main.bin",0,16384
762   0000
# file closed: main.asm
